(dp0
S'A4_y1.20_y1.40_val'
p1
(lp2
F0.3213915951470575
aF0.3132161493558466
aF0.3093104756574294
aF0.3121113479794046
aF0.2969396977081274
aF0.2898149053811861
aF0.2717167706554818
aF0.2869224495585818
aF0.2692774609392646
aF0.2982008712263979
aF0.2741033583742307
aF0.28039752799489503
aF0.24173730483851277
aF0.2391694367159862
aF0.214234749572589
aF0.22339877118773843
aF0.20403131144420514
aF0.1331899664125234
aF0.13076451380178716
aF0.07694506234909369
asS'A0_y1.20_y1.40_val'
p3
(lp4
F6.64877617701295e-05
aF0.0012571175832011266
aF-0.0016152001517248493
aF0.016096705343352745
aF0.021485169621347208
aF0.042152399779593154
aF0.06592855547506998
aF0.07274434936443644
aF0.09176140294713316
aF0.11830243423127557
aF0.16875942433112087
aF0.23958660977000107
aF0.2951362908652886
aF0.3026029973545085
aF0.38270013931621877
aF0.4834400276007531
aF0.64243439206677
aF0.7570018118918274
aF0.811064387771953
aF0.8769406671625544
asS'A4_y0.60_y0.80_val_err'
p5
(lp6
F0.010912305729835462
aF0.0074845169691423056
aF0.007360578521483229
aF0.007903816115509308
aF0.008476569628298762
aF0.009120009749835643
aF0.009829321783698493
aF0.010488947114756446
aF0.011318525767064167
aF0.012123797364667496
aF0.009567218607088113
aF0.010961635817787448
aF0.012687560229267038
aF0.014776167779109551
aF0.01702696255246035
aF0.010411753868927103
aF0.01675946009359944
aF0.024765021782024603
aF0.02707563096266267
aF0.05380306956820675
asS'A4_y4.50_y5.00_fit'
p7
(lp8
F1.8828890100126772
aF-0.015350782201008113
asS'A4_y1.80_y2.00_val'
p9
(lp10
F0.5648985103490033
aF0.5579211762906849
aF0.5339125478386386
aF0.5239635440546824
aF0.5184054636036066
aF0.5151001952725446
aF0.51741363451443
aF0.505552297875357
aF0.49770840717172066
aF0.4754667478618612
aF0.48740590535327377
aF0.4801276723318608
aF0.4751242911247549
aF0.42132911033732273
aF0.4586799536026735
aF0.3973961405421714
aF0.364952686479071
aF0.28332513564687806
aF0.2522617556274323
aF0.25110332105700056
asS'A5_y1.20_y1.40_val'
p11
(lp12
F-0.00026975664488707545
aF0.0006668291555553253
aF0.010196597193600847
aF-0.003287013156703568
aF0.005053433393725118
aF0.00274812322386292
aF-0.004159045172495458
aF0.01739308700808352
aF-0.002107070134614953
aF0.004241231378531373
aF0.000943491073887068
aF0.0008693666771499816
aF0.017434727037979533
aF0.022349267617194874
aF0.013641396898365125
aF-0.002548488262447533
aF-0.022488371160556343
aF-0.006738561341361843
aF-0.023295204934065977
aF0.11853632445059735
asS'A4_y1.40_y1.60_val_err'
p13
(lp14
F0.01121180467607478
aF0.007701454250023219
aF0.0076401398301052855
aF0.008173186185275934
aF0.008827634986439369
aF0.009560426602660614
aF0.01024743913018264
aF0.010989430750414834
aF0.011769153661914021
aF0.012664161939367008
aF0.009956697030035388
aF0.011501120821556755
aF0.013369003788904224
aF0.015545089173723497
aF0.018063708731915352
aF0.011148898563434057
aF0.01820291773244525
aF0.02759086631114968
aF0.02971989543608636
aF0.05911994867868949
asS'A3_y4.00_y4.50_fit'
p15
(lp16
F0.0
aF0.019842606674644672
asS'A0_y1.80_y2.00_val_err'
p17
(lp18
F0.014167696252493932
aF0.009637689258387849
aF0.009682992417725115
aF0.010388839419211654
aF0.01114432685256922
aF0.012083439939931124
aF0.013092834729566983
aF0.01399132452025824
aF0.015143517676072945
aF0.016285124765772967
aF0.012834127422346379
aF0.015012710079492828
aF0.017514895832390635
aF0.020805673276334206
aF0.0241730894923866
aF0.015324734554197044
aF0.02572636118000805
aF0.039808293085326414
aF0.044755594332040655
aF0.09471654347643726
asS'A2_y0.60_y0.80_val_err'
p19
(lp20
F0.019869603607996254
aF0.01364757843378538
aF0.01344977003068959
aF0.014459658144569138
aF0.015589022505229387
aF0.01685083755619139
aF0.018414885684224523
aF0.019705877708114692
aF0.02140258114743366
aF0.023108217150703773
aF0.018524572402687494
aF0.021639175497602945
aF0.02544419838725503
aF0.030273546725534457
aF0.03537731280809981
aF0.022247617132107902
aF0.037067949338137555
aF0.05663686843746729
aF0.06340560086302387
aF0.13179716674369393
asS'A2_y1.80_y2.00_fit'
p21
(lp22
F0.0
aF0.008739531587461463
asS'A5_y1.80_y2.00_val_err'
p23
(lp24
F0.010248339760092722
aF0.007014136881589382
aF0.0070985838262977415
aF0.00763955354783298
aF0.008218106042945284
aF0.008959415652971961
aF0.009797599367242766
aF0.010512029507873569
aF0.011459298390649304
aF0.012394885319685531
aF0.009873408217909826
aF0.011655013308251663
aF0.01373475443565173
aF0.01646272238817077
aF0.019448984565425282
aF0.01236860652033604
aF0.021042100466853283
aF0.03269821503668521
aF0.03671292258296201
aF0.07897757160480545
asS'A3_y0.00_y0.20_val'
p25
(lp26
F0.0010424541800995875
aF-0.0059650595110357935
aF-0.025064823258721017
aF-0.03801129430655944
aF-0.0326238988101789
aF-0.04043955188948456
aF-0.03974203315149959
aF-0.03793035874749897
aF-0.048810297432749096
aF-0.04657780018919166
aF-0.04035445573315989
aF-0.05280349511647116
aF-0.03983479099334085
aF-0.041294960650046675
aF-0.029914335308799944
aF0.03094067552818608
aF0.052660126688008256
aF0.108508976084691
aF0.08098859008082117
aF0.17931006017619525
asS'A5_y3.00_y3.50_val_err'
p27
(lp28
F0.007401066186903199
aF0.005165813973950518
aF0.005280413641184479
aF0.005772794451448914
aF0.0063266662538748976
aF0.006944293565895937
aF0.0076139084960939445
aF0.008356341125130335
aF0.009178543354604456
aF0.010006621329769287
aF0.008119197060204966
aF0.009790407109323735
aF0.012064614938138145
aF0.014853124566197251
aF0.017568638869057088
aF0.011972034415927913
aF0.022840683517237125
aF0.03924991184433281
aF0.05189501052549327
aF0.1583688876304055
asS'A2_y1.00_y1.20_val_err'
p29
(lp30
F0.020051161214153828
aF0.013642346723696725
aF0.01364886256504121
aF0.014696468594254955
aF0.01582104381238134
aF0.01714139006932069
aF0.018505441166042927
aF0.02006232912451519
aF0.021729571778118385
aF0.023656177891954972
aF0.018772771274993744
aF0.021946979557452485
aF0.02625801921266476
aF0.03128195160113569
aF0.03615806929059113
aF0.02282008648946287
aF0.038064018860164334
aF0.058523150004934514
aF0.06568264450691136
aF0.13293687469000476
asS'A7_y3.50_y4.00_fit'
p31
(lp32
F0.0
aF0.0003694451131756593
aF-1.8594218246099393e-05
asS'A1_y0.40_y0.60_val_err'
p33
(lp34
F0.011107927355932176
aF0.007606859302510151
aF0.007528793363126694
aF0.008057008099251741
aF0.008675253026592757
aF0.009410190155508803
aF0.01012029574904615
aF0.010966505222560315
aF0.011766334392047797
aF0.012795621285325224
aF0.010022615268790431
aF0.011619950841741245
aF0.013614808141367028
aF0.015950521479239817
aF0.0183532780691182
aF0.011543873961270353
aF0.018891143183138427
aF0.028232798798593868
aF0.030455333342688178
aF0.06645258989300704
asS'A7_y1.60_y1.80_val'
p35
(lp36
F-0.004121386536986402
aF-0.0016528759092656864
aF-0.011972398317408015
aF-0.007912460718437365
aF0.0008984031224573644
aF0.0007362457238567905
aF0.012192118148653668
aF-0.005487600818498303
aF-0.008007327973100763
aF0.0004882655089689811
aF-0.004695082716852782
aF0.022858779168744858
aF-0.02380910970006323
aF-0.012637579057141557
aF0.004564605624902903
aF-0.03221529420705839
aF-0.022390586802365095
aF0.017145811008008504
aF-0.03803701792358853
aF-0.0956419662764451
asS'A0_y4.50_y5.00_val'
p37
(lp38
F0.04731709623502639
aF-0.04717870922854906
aF0.019542491737291435
aF0.005984336040278581
aF0.11427142298904223
aF0.07329334270167115
aF0.10811076942857487
aF0.12753292469624702
aF0.14222923275899294
aF0.14038210944450283
aF0.11904946154370141
aF0.5108554321458549
aF0.4731018472971648
aF0.5544083690279915
aF0.3396784287592134
aF0.6564084197144008
aF0.02135084070914773
aF169995.27114520382
aF0.0
aF0.0
asS'A5_y3.00_y3.50_val'
p39
(lp40
F0.005742093637097471
aF0.008413843474648972
aF-0.003079041216318711
aF-0.0015677460635765746
aF-0.0019337631058042074
aF0.0025327617689553114
aF-0.0071668594121798435
aF-0.005548734834405134
aF0.005758450042110222
aF0.011001434137090468
aF-0.005059146873730201
aF-0.001080672594413734
aF0.0009030335090222004
aF0.00798113066893904
aF0.01901737872030192
aF0.007687381284550702
aF-0.019698383170352968
aF-0.044190156262481343
aF-0.04804044496197176
aF0.37083540828954853
asS'A7_y3.50_y4.00_val_err'
p41
(lp42
F0.00806471070825061
aF0.005718909138391092
aF0.005909480072144627
aF0.0065733893541599885
aF0.007311823643635514
aF0.008077189276558575
aF0.008939755647457198
aF0.009948318262415459
aF0.010860835956477312
aF0.012097034952977105
aF0.009895418783262394
aF0.012293426746388527
aF0.015237853568864585
aF0.01914530676795504
aF0.022770288434255017
aF0.016359708466913925
aF0.033615700699638866
aF0.06323418334177514
aF0.1018564187278268
aF0.4028123848564293
asS'A4_y4.00_y4.50_val_err'
p43
(lp44
F0.017927241169131792
aF0.012920903839897744
aF0.013607511023544419
aF0.015405644841697456
aF0.017469923187469885
aF0.01960076029678708
aF0.02191596087507101
aF0.02486883551304777
aF0.027565694212857966
aF0.03127718164865848
aF0.026425942837610704
aF0.03350982626247157
aF0.04189237619380541
aF0.052544998308446424
aF0.06600349814205839
aF0.046131104553359205
aF0.11202319901864977
aF0.2852785088892685
aF0.5633441393944855
aF1.315696930920137
asS'A4_y3.50_y4.00_val_err'
p45
(lp46
F0.011333963420346689
aF0.008007846502980132
aF0.00826255235486886
aF0.009123112610218932
aF0.010083833583420816
aF0.011148946827259025
aF0.01226058155398951
aF0.0134770783486571
aF0.014729113839446136
aF0.01629363420355596
aF0.013111357053660042
aF0.01603097297577562
aF0.019490535058269077
aF0.02408240289055143
aF0.0282106441877672
aF0.01958087113219998
aF0.03867296732879788
aF0.06931453060904066
aF0.11415038506253515
aF0.427855137847221
asS'A1_y1.20_y1.40_val'
p47
(lp48
F0.004988607876535494
aF0.033755496409052
aF0.04500981803663968
aF0.0667562712808159
aF0.07916593341916313
aF0.10247637419773661
aF0.11123820429700776
aF0.15079925413824152
aF0.14780224476024123
aF0.17738272829901164
aF0.18937285390717123
aF0.18085483212379455
aF0.1743173737934782
aF0.1525606218113454
aF0.1285720066268952
aF0.08319303481558499
aF0.06582767062818327
aF0.012092399012346445
aF0.03976299414644514
aF0.096847583832777
asS'A0_y0.20_y0.40_fit'
p49
(lp50
F0.0
aF-0.003055055414333374
aF0.0005891682337110966
aF-6.772248389197254e-06
asS'A7_y2.50_y3.00_val'
p51
(lp52
F-0.0014740011892191384
aF-0.003106561519533757
aF-0.0009040086316598149
aF0.0036698446396930167
aF0.005767399162855626
aF-0.005794365387758531
aF0.007268115805631808
aF-0.004190953190986008
aF-0.009745493013419383
aF-0.007661392820102392
aF0.0017349548790260355
aF-0.006801764116007624
aF-0.013727321490908086
aF-0.014998886826378647
aF-0.045351077119822225
aF-0.03934459363083836
aF-0.03627788906307458
aF-0.009688780393290408
aF-0.0020870536747358386
aF0.006379408814670814
asS'A7_y1.80_y2.00_val_err'
p53
(lp54
F0.0094543443255584
aF0.006437876536861656
aF0.006486753152454381
aF0.0069602182210748995
aF0.0074922817979499136
aF0.008154326697678469
aF0.00891793355783756
aF0.009507495227727996
aF0.010367448258833267
aF0.011173906517810046
aF0.008838799028994234
aF0.010423012033117747
aF0.012249909698444226
aF0.014557924954868589
aF0.017072458089470888
aF0.01081264457766737
aF0.018173516978015485
aF0.027863807772751218
aF0.031207623379729744
aF0.06583952026001076
asS'A0_y1.60_y1.80_val_err'
p55
(lp56
F0.013960378418418908
aF0.009606461035548353
aF0.00953739018034852
aF0.010238550673413574
aF0.011056458705485672
aF0.01188067947344917
aF0.01287519130196962
aF0.013857905812665513
aF0.014867089926928624
aF0.01593704714695438
aF0.012605175761558122
aF0.014669761685772335
aF0.017268270820201548
aF0.020319567100141482
aF0.023153938543818805
aF0.014992038467199374
aF0.025429336965543718
aF0.037068215337405605
aF0.04318536120630943
aF0.08894640682234525
asS'A4_y1.40_y1.60_val'
p57
(lp58
F0.3961269886922297
aF0.3885089550739309
aF0.3877259593468676
aF0.363018511378985
aF0.35410954930256605
aF0.3426369929268414
aF0.35344989229277163
aF0.34461567579306207
aF0.3297745956578748
aF0.3637938003854279
aF0.3470251827635478
aF0.3333702594347924
aF0.3236632902301978
aF0.2981669057750694
aF0.30356670709681993
aF0.28511872165632396
aF0.23779653678355997
aF0.23900517049897915
aF0.14622671994962697
aF0.19509660783377722
asS'A6_y3.50_y4.00_fit'
p59
(lp60
F0.0
asS'A0_y2.00_y2.50_val'
p61
(lp62
F-0.0025404839135052845
aF-0.001313996772262497
aF-0.011171179472586758
aF0.004442492152989799
aF0.016862245529955404
aF0.046393377465002154
aF0.050799334503194474
aF0.09290412907539404
aF0.09862969496585747
aF0.14423110380132823
aF0.181977440468908
aF0.22084369585903113
aF0.27438974452362036
aF0.3748012588920604
aF0.39553649261487983
aF0.47266021122999746
aF0.617303045655986
aF0.7064213340208497
aF0.8311482642084422
aF0.8927697697225109
asS'A5_y2.50_y3.00_fit'
p63
(lp64
F0.0
asS'A7_y1.20_y1.40_val'
p65
(lp66
F-0.008920474129446698
aF-0.0034836561963141337
aF-0.002771681433875716
aF-0.004295167491403614
aF-0.003355140208794545
aF0.008038736972636658
aF-0.0012911515775094588
aF-0.00018593891543702826
aF-0.020140399151603258
aF0.007427245308491138
aF0.0049598802510985975
aF0.004173402055014481
aF0.010512756046336629
aF-0.011289091467278108
aF-0.0007785190211902076
aF-0.02372415147761623
aF-0.004781525333185837
aF-0.019626212763256195
aF-0.022537834357175154
aF0.02522112853147609
asS'A0_y1.00_y1.20_fit'
p67
(lp68
F0.0
aF-0.0026203428957798647
aF0.0006573449696224715
aF-8.238977791512483e-06
asS'A0_y1.60_y1.80_fit'
p69
(lp70
F0.0
aF-0.0022404696278466585
aF0.0006376072005169747
aF-8.174088211970721e-06
asS'A4_y0.60_y0.80_fit'
p71
(lp72
F0.15491504799224803
aF-0.0011922189490382422
asS'A5_y2.50_y3.00_val_err'
p73
(lp74
F0.0068561824706109935
aF0.004757199657530391
aF0.004803467785933076
aF0.0052236655132636995
aF0.005695025670097241
aF0.006223739851463162
aF0.006793639611797478
aF0.00736812193564434
aF0.008049145119945002
aF0.008721957098600963
aF0.007006660381566554
aF0.008328662976792932
aF0.010130227780522761
aF0.01222386000681486
aF0.014439740889509795
aF0.009572974003682363
aF0.017205583683501675
aF0.02776859839578961
aF0.03326081102578631
aF0.08267509933205486
asS'A7_y2.00_y2.50_val_err'
p75
(lp76
F0.006068892990923089
aF0.004174396097605409
aF0.004190984712425877
aF0.0045166224754515025
aF0.004893588204372779
aF0.005332134278692877
aF0.005755167400538464
aF0.006218479106754038
aF0.0067639063428547395
aF0.007331774019183566
aF0.005828044566527782
aF0.006811137121008473
aF0.008162159061903436
aF0.0096975533043657
aF0.011257359052317674
aF0.0073104142994770815
aF0.012476345204159581
aF0.019275485271777328
aF0.02167810526242566
aF0.04590093904127517
asS'A4_y4.00_y4.50_fit'
p77
(lp78
F1.777230782300184
aF-0.009484263807466808
asS'A3_y3.50_y4.00_val'
p79
(lp80
F0.025256505355635443
aF0.04117584870562727
aF0.06514893721727387
aF0.11128419041226434
aF0.14578443812396055
aF0.18017504534328285
aF0.22324500333660988
aF0.2644410775113616
aF0.3092195194882867
aF0.33503141654219654
aF0.3992269161472614
aF0.43859354261010747
aF0.46484020833535006
aF0.4878709034197875
aF0.5580398451221233
aF0.7092580689294292
aF0.9902479592409117
aF1.1594645509642976
aF1.2632700245778814
aF1.8236321620491236
asS'A3_y2.00_y2.50_fit'
p81
(lp82
F0.0
aF0.0019230600780678342
aF0.00044125668834370246
aF-1.7517467422264077e-05
aF1.970450093662563e-07
asS'A2_y1.80_y2.00_val_err'
p83
(lp84
F0.02063957229693322
aF0.014086083259490461
aF0.014178929894815864
aF0.015276629366603883
aF0.01645837150121514
aF0.01796878936735895
aF0.019674282863962504
aF0.021094644181570362
aF0.023067986838571704
aF0.02490700783733887
aF0.019842242962365562
aF0.023563099937010414
aF0.027903611034827885
aF0.03330733209151268
aF0.03897427519631178
aF0.024996492734400057
aF0.04244737215905217
aF0.06578831876737204
aF0.07490505938069067
aF0.15883596224575636
asS'A2_y0.80_y1.00_fit'
p85
(lp86
F0.0
aF0.0009499299881810808
aF0.00043325810080874563
aF-5.831268475222501e-06
asS'A5_y1.40_y1.60_val_err'
p87
(lp88
F0.0100914227553643
aF0.006941412251249633
aF0.0069075707403438965
aF0.007431292728761562
aF0.008076618064341647
aF0.0087718001357476
aF0.009470490637146018
aF0.010242675094578243
aF0.011114203525145293
aF0.011946073401947347
aF0.00959135278599699
aF0.011211016407987676
aF0.013323835618487797
aF0.015813430631353983
aF0.018633189189639337
aF0.011762261192729042
aF0.019854972581775966
aF0.031017596456264084
aF0.034388470512591154
aF0.06945016073729562
asS'A3_y2.00_y2.50_val'
p89
(lp90
F0.008081233945632902
aF0.015219558624863646
aF0.01539821327860376
aF0.030785010369554076
aF0.0348643163448677
aF0.056679263482991966
aF0.06453462335157477
aF0.07422375501039181
aF0.10177864348101237
aF0.10112793297675768
aF0.11833193729904565
aF0.13502147963401492
aF0.12384259649083255
aF0.14822931579809448
aF0.17419224670702366
aF0.2405633856556961
aF0.3873667949102731
aF0.5299436865838189
aF0.685783860484924
aF0.8638284948515232
asS'A1_y1.60_y1.80_val'
p91
(lp92
F0.020341707583935026
aF0.03365878311686599
aF0.060641177497061965
aF0.06827598681878753
aF0.08290633285664062
aF0.11941152938006337
aF0.13062862238251274
aF0.15321187808194073
aF0.20212354375391967
aF0.18485194627293258
aF0.1860717625934924
aF0.18957024165824862
aF0.18427787339487364
aF0.14939500139059045
aF0.13678139701904932
aF0.12066137885462085
aF0.11690919851400956
aF0.034265448259148915
aF0.12966777928636913
aF0.15160272288563517
asS'A0_y0.40_y0.60_val_err'
p93
(lp94
F0.013627842453247418
aF0.00929008978604788
aF0.009183928897730207
aF0.00981870351255116
aF0.010533015203472466
aF0.011430916657223065
aF0.012153562851573929
aF0.013146017811384742
aF0.014021844447701708
aF0.015259959666128094
aF0.011898541980328355
aF0.013795269582468779
aF0.016060295081834267
aF0.018671990993182473
aF0.02153405546220415
aF0.013536503730828573
aF0.02231700531169403
aF0.03330884808299037
aF0.03641405142643272
aF0.07753409163510597
asS'A2_y4.00_y4.50_fit'
p95
(lp96
F0.0
aF0.008644651993490876
asS'A6_y1.00_y1.20_fit'
p97
(lp98
F0.0
asS'A6_y0.00_y0.20_val_err'
p99
(lp100
F0.011075505671955475
aF0.007605959317563929
aF0.007475655247682661
aF0.007967712524353791
aF0.008535309943471653
aF0.009259290762914556
aF0.009947874859535083
aF0.010758866839484817
aF0.011509387685203465
aF0.01253274536517617
aF0.009730415034607014
aF0.01134196058397438
aF0.013223160592339071
aF0.015471601604720197
aF0.01774060816935247
aF0.010996304668036812
aF0.018019937459927762
aF0.02579401836856175
aF0.02834507330803199
aF0.05756160295732668
asS'A2_y3.50_y4.00_val_err'
p101
(lp102
F0.01759027712867532
aF0.012502907670744676
aF0.012919085697270186
aF0.014420625951345717
aF0.016058904806887833
aF0.017747495351591463
aF0.019668500143301928
aF0.022016317093127128
aF0.02400990599164087
aF0.026930046920908647
aF0.022146490607770606
aF0.027590374534470732
aF0.03449865780418412
aF0.04375731401208983
aF0.05254911483001791
aF0.037450666983625744
aF0.07867302383111381
aF0.1484502523535196
aF0.24203713829707063
aF1.0582095509118759
asS'A1_y0.00_y0.20_fit'
p103
(lp104
F0.0
aF0.0009123307007892351
asS'A2_y4.00_y4.50_val'
p105
(lp106
F0.006577216338628761
aF0.015857318689087248
aF0.051547014162732906
aF0.0409887231446948
aF0.10647441784303706
aF0.08939606089836828
aF0.039065602301918786
aF0.06229629108056736
aF0.15974042032082106
aF0.16847478926143789
aF0.18905693702171092
aF0.22493423725252668
aF0.3470474866336777
aF0.47076783492982793
aF0.43524678264238403
aF0.3996606383492885
aF0.7593744299695895
aF0.0031848125645652053
aF1.6824993295600033
aF-3.6043115018242937
asS'A7_y1.80_y2.00_val'
p107
(lp108
F0.01574482370707857
aF-0.0016850556284507664
aF0.00132001246154666
aF-0.0061719709089383245
aF0.0032670705189639005
aF0.011637370936620714
aF0.009075174984389292
aF-0.010495039095045526
aF-0.01598059021123003
aF-0.013222367064537355
aF0.003409924086627013
aF0.015023487486236201
aF-0.010190159891083145
aF-0.011112637587824442
aF0.006792564648540305
aF-0.015587281658665145
aF-0.04051871618532938
aF-0.06703914245067052
aF-0.045711143424589894
aF-0.01346967100134399
asS'A2_y2.00_y2.50_fit'
p109
(lp110
F0.0
aF-0.0010452285799317507
aF0.0006305807861700166
aF-8.913186354894313e-06
asS'A5_y4.50_y5.00_val_err'
p111
(lp112
F0.037782949069375606
aF0.02741646934084952
aF0.03015152215904524
aF0.0353478656499729
aF0.04122196811641213
aF0.047290085837143336
aF0.05691651766325066
aF0.06628693890270815
aF0.0814652594361725
aF0.08619934929150924
aF0.07665076125379033
aF0.12172593448971758
aF0.15279309674584204
aF0.22466285743750294
aF0.2821032229617007
aF0.29706188790902727
aF1.6764360715650242
aF12041432127.941021
aF0.0
aF0.0
asS'A0_y1.40_y1.60_val_err'
p113
(lp114
F0.013836269454656706
aF0.009511308483422071
aF0.009442046679163584
aF0.010112134060131901
aF0.010961062195351732
aF0.011850117182476128
aF0.012696295733398966
aF0.013664138918126949
aF0.014682034863062032
aF0.015727853275057293
aF0.012432957138231062
aF0.014463670119770856
aF0.01690292027839889
aF0.01985358428973756
aF0.023241008038730318
aF0.014502812391535135
aF0.02425713745271731
aF0.037549833478055614
aF0.04146820254801772
aF0.0830948857263526
asS'A6_y1.80_y2.00_val'
p115
(lp116
F-0.0011048607524356538
aF0.0029649919691573583
aF0.010376790487941033
aF-0.00394872600270601
aF-0.006261430294654879
aF-0.005264006695014806
aF0.006439521681864064
aF0.012542652101836436
aF0.0025676027781645853
aF0.008430080215949176
aF-0.0033830727850006183
aF-0.007415539171420912
aF-0.015766006682858665
aF0.021037802995081345
aF-0.005514285234670038
aF-0.04542222161148226
aF-0.012622269214515081
aF0.01640187682420609
aF-0.03131412743600784
aF0.03205145538363081
asS'A1_y0.80_y1.00_val_err'
p117
(lp118
F0.011210680508964494
aF0.007609949376005569
aF0.007579350884653886
aF0.008119379491420525
aF0.008771163040372046
aF0.009491894130662528
aF0.010238039396678302
aF0.011112297982621953
aF0.012033679040661955
aF0.013007659920493452
aF0.010189113231703212
aF0.011822129140783502
aF0.013892864839985536
aF0.01622497368490439
aF0.01869915899521799
aF0.011747665442654744
aF0.01933583518920558
aF0.029135936001689497
aF0.031548275249680006
aF0.06800364567755675
asS'A3_y1.40_y1.60_fit'
p119
(lp120
F0.0
aF-0.0005613269136347382
aF4.8252064508810984e-05
asS'A2_y1.20_y1.40_val_err'
p121
(lp122
F0.02008477155249441
aF0.013820700548430206
aF0.013779092482932291
aF0.014740389740892848
aF0.01596492934870722
aF0.01728900994075405
aF0.01870008781453353
aF0.020190454183179954
aF0.021987730817996036
aF0.023861063379541074
aF0.018967682715862244
aF0.02215457763917746
aF0.026431134958308334
aF0.03140739680660675
aF0.03614829362567663
aF0.023143076342349186
aF0.038890985431796816
aF0.05909662061439964
aF0.06641387678620927
aF0.13706491124317471
asS'A2_y2.50_y3.00_val_err'
p123
(lp124
F0.013727004754315437
aF0.009509671557362685
aF0.009611640208340261
aF0.010465817619456369
aF0.011418226163038992
aF0.012482918223014011
aF0.013595583386881015
aF0.014801429172187658
aF0.016149832937135594
aF0.01757712100764113
aF0.014089836188206676
aF0.016814840577298876
aF0.020475496282939033
aF0.024737909385413596
aF0.029167812995206335
aF0.019330536955648854
aF0.03470609948334375
aF0.0561270060206956
aF0.06685905501394143
aF0.1662335105712032
asS'A5_y3.50_y4.00_val_err'
p125
(lp126
F0.008799095669980694
aF0.006248234722985244
aF0.006456295313136231
aF0.007191733247153799
aF0.007995592249940588
aF0.008871589798093712
aF0.009839133694496145
aF0.011003999162427513
aF0.012028857183979846
aF0.013450442070871132
aF0.011014547032062932
aF0.013689820085132181
aF0.01711315846734489
aF0.021600695579086376
aF0.025899061885311804
aF0.01868548870256572
aF0.0388552190259205
aF0.07379091650640211
aF0.12124319856835575
aF0.4966554257247219
asS'A7_y4.50_y5.00_fit'
p127
(lp128
F0.0
asS'A0_y3.50_y4.00_val_err'
p129
(lp130
F0.011954215020336742
aF0.008480709455469823
aF0.008769520461597362
aF0.009716303318877205
aF0.010749975073865525
aF0.011905510477495463
aF0.013139458745603032
aF0.01454005515885776
aF0.01589705137302407
aF0.017645531124363848
aF0.014336984391272057
aF0.017627861309210593
aF0.02170501459453708
aF0.027328761505363702
aF0.03261093603168449
aF0.023114091587429237
aF0.047388108382186794
aF0.08979049082240644
aF0.14555782873727696
aF0.603836083901843
asS'A3_y0.40_y0.60_fit'
p131
(lp132
F0.0
aF-0.004054359699082508
aF8.52229522876626e-05
asS'A1_y0.60_y0.80_val'
p133
(lp134
F0.009999963685005457
aF0.02275045815968521
aF0.03792325367450486
aF0.03562672585680759
aF0.06634736677471513
aF0.07512062308801999
aF0.0999145454175086
aF0.08961478934242029
aF0.10535399649070766
aF0.10795353186079527
aF0.10640813672795993
aF0.1257819148755655
aF0.14192689465883163
aF0.11321469423368653
aF0.0995479988520807
aF0.05836694247230984
aF0.03367301873801987
aF0.04790386982689849
aF-0.014015655834965312
aF-0.06936834259400786
asS'A4_y3.00_y3.50_fit'
p135
(lp136
F1.4048330947573713
aF-0.008619953831614284
asS'A7_y0.20_y0.40_val'
p137
(lp138
F0.0013580708967011429
aF0.0017395237983350079
aF-0.002504753833556603
aF-0.003976988272425818
aF0.0048586956657581245
aF0.005220474269877652
aF-0.008699824633027183
aF0.009326355164543823
aF0.0009305343411082959
aF0.0028857819828714813
aF0.00555767199169976
aF-0.003448314163194093
aF-0.009597530867117128
aF0.004887634832919411
aF0.005994480926217964
aF-0.026746597847574403
aF0.008320488472403461
aF0.024125508897262712
aF-0.00745206578341767
aF-0.022282159360337957
asS'A0_y1.40_y1.60_val'
p139
(lp140
F-0.02647057582475248
aF-0.008481510214489459
aF0.005570403507089577
aF0.006420712475045115
aF0.025358454101721033
aF0.04864043014416927
aF0.04873051586098814
aF0.0797128821842542
aF0.10830242106968216
aF0.10194319764372965
aF0.17030738940482198
aF0.23498027388693088
aF0.29267961939255865
aF0.3703899078114806
aF0.40738846254563515
aF0.48760787782975895
aF0.5947088691582905
aF0.7429037017734613
aF0.8403888948191741
aF0.8332024777369453
asS'A7_y4.00_y4.50_val'
p141
(lp142
F-0.012127173392677583
aF-0.005413013183193619
aF0.016942295162258102
aF-0.0036214073277527283
aF0.001853095764596762
aF-0.022396312406091877
aF0.0008457464856335826
aF-0.007715973418204284
aF-0.00667759766370667
aF0.010259682066915791
aF-0.012103153938600812
aF0.004022562318174708
aF-0.003142238894897714
aF-0.01864062703305488
aF-0.029901118453130832
aF-0.09948147877658306
aF-0.05320380095968417
aF-0.26660679930324344
aF-0.1790280365754482
aF-0.7097351731088951
asS'A6_y4.50_y5.00_fit'
p143
(lp144
F0.0
asS'A7_y3.00_y3.50_fit'
p145
(lp146
F0.0
aF-0.001676875689210655
aF0.00024053223179100122
aF-1.0062993060552003e-05
aF1.1405740951145488e-07
asS'A3_y1.00_y1.20_val_err'
p147
(lp148
F0.009214460505343375
aF0.006269483053703426
aF0.006270912882866793
aF0.006762279794366517
aF0.007273095707094665
aF0.007884098881073965
aF0.008531311730746834
aF0.00921848335067249
aF0.010012023816439126
aF0.010916294621433531
aF0.008668445989867216
aF0.010112511690760065
aF0.012107241858848641
aF0.014343953320671681
aF0.016623588264828067
aF0.010551884521776042
aF0.017611581657621445
aF0.027229662218720613
aF0.03052460642374191
aF0.062237365669590886
asS'A0_y1.80_y2.00_val'
p149
(lp150
F-0.025990946524894493
aF-0.003836017155657769
aF0.016805581043291547
aF0.01738319102309967
aF0.006264029263243958
aF0.05095363199127312
aF0.09486135238682722
aF0.06264096387358933
aF0.12927645162516205
aF0.09992693105067327
aF0.17181330319557175
aF0.2541396926873317
aF0.3099445766453323
aF0.38020309125788004
aF0.41674366721471795
aF0.4775205928978897
aF0.6565614195796378
aF0.80803348029463
aF0.8380940153865978
aF0.9410513057592039
asS'A5_y1.40_y1.60_val'
p151
(lp152
F0.005142174570448236
aF0.00013067042959210638
aF0.0011544706237558114
aF0.015787806576837773
aF0.0022608089580187915
aF0.011129476617502198
aF0.006792210498668239
aF-0.0008796079327661989
aF-0.006473540125882018
aF-0.006165276881752817
aF-0.008013447809467668
aF-6.557534223661114e-06
aF0.014392832284667104
aF-0.002116944700675478
aF0.013266668677745548
aF-0.006175248495658103
aF-0.024625166792403848
aF-0.05742958687555236
aF0.06597701318246721
aF0.05726774383691803
asS'A1_y2.00_y2.50_fit'
p153
(lp154
F0.0
aF0.008564146275449519
aF0.00038892821986002274
aF-2.21191397591201e-05
aF2.416865716597288e-07
asS'A0_y4.00_y4.50_val'
p155
(lp156
F0.019305265673954443
aF-0.007596922876879107
aF0.02205466485863718
aF0.01586673755772952
aF0.035386855126047
aF0.035987449313550274
aF0.06729808769154615
aF0.12487425198080916
aF0.1346352839518607
aF0.14582821926197073
aF0.18772224457180098
aF0.20664093906830244
aF0.2966354060370094
aF0.3544854031775941
aF0.2814133147853473
aF0.5082728859112774
aF0.5629438387392715
aF0.5534828185598576
aF1.6376337139307535
aF1.7725842706191661
asS'A3_y0.20_y0.40_val_err'
p157
(lp158
F0.009054760149701935
aF0.0062099949965745615
aF0.006172861015091993
aF0.006581916025636884
aF0.007122637548301222
aF0.007720606965040645
aF0.008406946817410442
aF0.009069994885253806
aF0.009726439022412976
aF0.010518845307126618
aF0.008359804746441856
aF0.009761008519326798
aF0.011526842184568231
aF0.013732033520886873
aF0.01576757500904343
aF0.010083831983411168
aF0.016914980135257197
aF0.02571424633037081
aF0.028489821440496468
aF0.05636589565925525
asS'A3_y3.00_y3.50_val'
p159
(lp160
F0.012287145082484166
aF0.03241691359680378
aF0.0568710640077057
aF0.09258446055982364
aF0.1208055280983952
aF0.147658708454189
aF0.18815267230728464
aF0.21678043845807993
aF0.2539538004128401
aF0.25868400263214697
aF0.29723032474594335
aF0.32868019419688477
aF0.3591870286661738
aF0.3808835514524926
aF0.4040659289188095
aF0.5501210370006406
aF0.7947626891361648
aF0.968726385183097
aF1.1102583454191217
aF1.4554803277829496
asS'A4_y0.40_y0.60_val_err'
p161
(lp162
F0.010916453645097352
aF0.007445076030234275
aF0.007340787015517077
aF0.00786243416746966
aF0.008418305298601495
aF0.009120461038854177
aF0.009712753565582561
aF0.010484514694106295
aF0.011192402285440975
aF0.012144019263295579
aF0.00942763902091685
aF0.010850476902228389
aF0.01257232028963984
aF0.014578098742333736
aF0.016653856190172397
aF0.010336801804223354
aF0.016555644328557148
aF0.02430671074494532
aF0.026056586919884172
aF0.0550833922636634
asS'A0_y2.50_y3.00_val'
p163
(lp164
F-0.008713863171299387
aF-0.0017568226299777478
aF0.0025688020631949304
aF0.01759813022617582
aF0.024774323238459853
aF0.0669398195718385
aF0.05956507012953586
aF0.07497224361839933
aF0.11002450682060447
aF0.13840312177740235
aF0.19392310985837952
aF0.23503509687480278
aF0.2953780860785387
aF0.36538676507104745
aF0.4059516048656806
aF0.46546824746240073
aF0.6101341459516907
aF0.7076204640511151
aF0.8064217714561811
aF0.9700560482019548
asS'A4_y1.60_y1.80_val_err'
p165
(lp166
F0.011368456473355876
aF0.0078048791716227965
aF0.007772042635818969
aF0.00829807279736195
aF0.008963679832538742
aF0.009629318877289314
aF0.010384831429628316
aF0.011219211967821434
aF0.012041817607068184
aF0.012894434700854107
aF0.01013227836874406
aF0.011724428250882185
aF0.013712042949527638
aF0.016033803176588625
aF0.0181563330878915
aF0.01157471806219098
aF0.01912278056059932
aF0.027091578467720506
aF0.030825148300974613
aF0.06176747431643509
asS'A4_y2.00_y2.50_val_err'
p167
(lp168
F0.007578904522392237
aF0.005197636436486951
aF0.005197602641526446
aF0.005586907523154379
aF0.006035513459082876
aF0.0065417398933524575
aF0.007048437302703754
aF0.007547074031082546
aF0.008182167640870581
aF0.008772507543012944
aF0.006932754854340037
aF0.008007679715720462
aF0.009457769613475876
aF0.011052096778809301
aF0.012736566381535168
aF0.008097277505354827
aF0.013460522801464987
aF0.020323864677875624
aF0.02241979237400227
aF0.04686395783165533
asS'A6_y0.40_y0.60_val_err'
p169
(lp170
F0.011115179870371668
aF0.0075897932192727615
aF0.007500369631394055
aF0.00804634646867588
aF0.00861048079222546
aF0.00932417463104429
aF0.009968198458036077
aF0.010753650287297837
aF0.011530238932703095
aF0.012537243181495362
aF0.009801378323902387
aF0.01136610494025947
aF0.013271168271171804
aF0.015470708039286116
aF0.017746134871020197
aF0.011084904493071425
aF0.017953429583202955
aF0.026431378303130654
aF0.02841586533233785
aF0.059839984783926825
asS'A4_y0.60_y0.80_val'
p171
(lp172
F0.1500639266130683
aF0.14955978555436786
aF0.15508894064832635
aF0.14315265428825688
aF0.1494808036000983
aF0.14181483334614026
aF0.12463101037654714
aF0.15156464984218895
aF0.1355261852662575
aF0.1128016283580241
aF0.13589913930022232
aF0.12157314723747886
aF0.11937011591263315
aF0.13374272254263384
aF0.08443104573747245
aF0.09682561087042449
aF0.05855601959272336
aF0.0999521059576101
aF0.026268990755717283
aF-0.011920349804561442
asS'A3_y1.60_y1.80_fit'
p173
(lp174
F0.0
aF0.0018486153677527012
asS'A1_y0.80_y1.00_val'
p175
(lp176
F0.012005720328219963
aF0.02792564513516735
aF0.035251749036663574
aF0.05804613731568905
aF0.07344172557391047
aF0.10710675841742091
aF0.10197639900060898
aF0.11077841852818016
aF0.13352674067599302
aF0.12699463959996185
aF0.14599950249423885
aF0.14915598300852695
aF0.1330028122240606
aF0.1359686562357599
aF0.13754548020710006
aF0.06667766988072463
aF0.044837668793866185
aF0.03254186042738665
aF-0.004780154541007884
aF-0.08072343840122298
asS'A1_y1.20_y1.40_val_err'
p177
(lp178
F0.011273967247871441
aF0.007733193741193913
aF0.007712385339618126
aF0.008260255462542606
aF0.008939846813472112
aF0.009639346323735053
aF0.010421552518481854
aF0.011254983645102268
aF0.01222771232166009
aF0.013185166952857421
aF0.010465615765962395
aF0.012067923802175664
aF0.01426540268887906
aF0.016862817406997625
aF0.0191566102847262
aF0.012117594248401715
aF0.020007021741204337
aF0.03017597311058987
aF0.033586206262671545
aF0.06741274677042908
asS'A0_y0.80_y1.00_fit'
p179
(lp180
F0.0
aF-0.0034647516113603116
aF0.0006895970940856387
aF-8.579844997843791e-06
asS'A3_y1.00_y1.20_fit'
p181
(lp182
F0.0
aF-0.0025691212875630504
aF7.4332470404686e-05
asS'A5_y1.40_y1.60_fit'
p183
(lp184
F0.0
asS'A5_y0.80_y1.00_val'
p185
(lp186
F-0.0007369367781353902
aF0.006172681242705613
aF-0.011601266469928685
aF0.007247539494620012
aF-0.005759708659206541
aF-0.0009435123419360205
aF0.004256389874307389
aF0.02766248255780593
aF-0.005595759502692114
aF0.020237952001286957
aF-0.0018595761364338956
aF0.025710409075697258
aF-0.007420901453052462
aF-0.0026193449303707015
aF0.01950878409010388
aF0.011494229281820287
aF-0.0008512682764540915
aF-0.05988260469561721
aF-0.004204697556575603
aF-0.038446875455316214
asS'A2_y0.00_y0.20_fit'
p187
(lp188
F0.0
aF-0.0006731127885505894
aF0.0004541263402173222
aF-5.66712747150568e-06
asS'A5_y1.80_y2.00_val'
p189
(lp190
F-0.008749302875124992
aF-0.004585974360321964
aF0.01097143036022951
aF0.009174844894384809
aF0.00018314066146326511
aF0.01609473404578159
aF0.006204399635920487
aF-0.0034704881296506907
aF-0.0017562685546271039
aF0.013163405091874521
aF-0.0007565603955206609
aF0.018343715872949553
aF-0.00403425030047721
aF0.014218648769735593
aF-0.031621371558093136
aF0.008088128758007606
aF-0.001694055847612401
aF0.029338288273670587
aF-0.02268771568767688
aF0.04449108895159802
asS'A7_y0.60_y0.80_fit'
p191
(lp192
F0.0
asS'A0_y1.60_y1.80_val'
p193
(lp194
F0.00945119099177221
aF-0.01581015790214742
aF-0.0014761145013016152
aF0.019573543521412325
aF0.014471452047431653
aF0.06170547538656702
aF0.07448510414993041
aF0.08279304127354008
aF0.08742215443896473
aF0.10988286495862526
aF0.17737402496119514
aF0.2372289553161714
aF0.2976439674413274
aF0.3277864012587885
aF0.3749741355808725
aF0.461972712304659
aF0.6182636953444137
aF0.7716671504669761
aF0.8872569562746511
aF1.0200006743502377
asS'A3_y1.20_y1.40_val_err'
p195
(lp196
F0.009217733023786857
aF0.006328195128221334
aF0.00631866714283372
aF0.006776734706380285
aF0.0073294805307812854
aF0.007935838984041248
aF0.008612058616381221
aF0.009328981060601435
aF0.010116251466856829
aF0.010984922788061386
aF0.008755331720525918
aF0.010188802269250745
aF0.012170582913785375
aF0.01449901547852944
aF0.016615023744915892
aF0.01068322913711962
aF0.01801032980327509
aF0.02755326557803655
aF0.031181644815794576
aF0.06356500947299161
asS'A2_y0.00_y0.20_val_err'
p197
(lp198
F0.019760652239139736
aF0.013588280528986883
aF0.013409737204445582
aF0.01431500762654625
aF0.01545346422153412
aF0.01668706324506797
aF0.017992417745637427
aF0.019661936846105302
aF0.02115636821098327
aF0.023037021707922514
aF0.01811045856547137
aF0.021389881929400004
aF0.025210941497707827
aF0.02984895005513011
aF0.03465902316705051
aF0.02189174601442393
aF0.037116461008785406
aF0.05407768498724364
aF0.06104119854528548
aF0.12676451414174977
asS'A6_y0.00_y0.20_val'
p199
(lp200
F0.002974282262133965
aF-0.003948920040065971
aF6.424908108919334e-05
aF0.0003651764579211215
aF-0.004400120944471846
aF0.0018604032467655675
aF0.005346671861622257
aF-0.010848658560137376
aF-0.0012988894228089841
aF0.00861010739219545
aF-0.005161419597488211
aF0.003146688711567899
aF-0.01887206858616559
aF0.02625139541808927
aF-0.0010989339988858372
aF-0.00503722454512811
aF0.005689392415740393
aF0.03049609168433445
aF0.01087252343213042
aF0.016056597311641007
asS'A2_y1.00_y1.20_fit'
p201
(lp202
F0.0
aF0.001383264111583432
aF0.00039739963513169517
aF-4.968300721324846e-06
asS'A3_y1.80_y2.00_val'
p203
(lp204
F0.005011191506896979
aF0.0005494036040967975
aF0.017975171773308728
aF-0.017524950475870556
aF0.015056561716363315
aF0.015477516581602574
aF0.021566181558159203
aF0.03998149941185041
aF0.04449005948566002
aF0.057838073632738546
aF0.05298122321161014
aF0.09358538776498047
aF0.08117014432965525
aF0.08512722710560276
aF0.08334716401744918
aF0.1618418041565011
aF0.28030124102441734
aF0.3800324666138545
aF0.5320450611553633
aF0.684271305645507
asS'A2_y2.50_y3.00_val'
p205
(lp206
F-0.013546060099419187
aF-0.0024938884486425035
aF0.022013027091119696
aF0.04102048550794217
aF0.04751875359898781
aF0.08589704277140074
aF0.06233394426868852
aF0.1063067484639305
aF0.13946340246508324
aF0.1684404677032765
aF0.160382057098614
aF0.25333993697959856
aF0.3312384153342084
aF0.3146594059593159
aF0.34550816397396256
aF0.4035223550960118
aF0.5591137356462771
aF0.6105558277113472
aF0.8101542270858834
aF0.6470109477501774
asS'A3_y4.50_y5.00_val_err'
p207
(lp208
F0.034651836532134654
aF0.02507526875902442
aF0.027696898914791695
aF0.032357061723497824
aF0.037940289199656675
aF0.0440965526857232
aF0.053070816226198296
aF0.06177971595194019
aF0.0759002738049315
aF0.08221785611517939
aF0.07467234980015214
aF0.11659244245428628
aF0.14728323520698308
aF0.2223427050929638
aF0.2825789243288749
aF0.2971502313862667
aF1.5267330447304723
aF8103718630.773665
aF0.0
aF0.0
asS'A7_y1.60_y1.80_fit'
p209
(lp210
F0.0
asS'A5_y0.40_y0.60_val_err'
p211
(lp212
F0.0098911306077856
aF0.0067718794795234806
aF0.006735612574229008
aF0.0072120745717763205
aF0.0077603651745597555
aF0.008432192427480991
aF0.009079265794604847
aF0.009855253310014163
aF0.010546661587381292
aF0.011526401600709293
aF0.00910562192889771
aF0.01071028783167368
aF0.01258043289764961
aF0.014787372321522907
aF0.017213566391324892
aF0.010940520963380985
aF0.018265959005168142
aF0.027467483163699454
aF0.03012730699178852
aF0.06478955102806298
asS'A7_y0.40_y0.60_fit'
p213
(lp214
F0.0
asS'A1_y1.40_y1.60_fit'
p215
(lp216
F0.0
aF0.012783591009844997
aF-0.00021792705928702638
asS'A1_y3.00_y3.50_val'
p217
(lp218
F0.0032536643113821777
aF0.02273026997551661
aF0.04835365982344209
aF0.07585528905715787
aF0.09281577041921088
aF0.11209506593774815
aF0.1390362189652776
aF0.16439403926000573
aF0.18419695032744612
aF0.19944182090334042
aF0.1942251893165062
aF0.24514182289513992
aF0.25443620138289913
aF0.2252278832754025
aF0.21741327295022914
aF0.211014113100405
aF0.26413527248613256
aF0.2649443279475856
aF0.3055313472308118
aF0.1089044883486846
asS'A1_y4.50_y5.00_fit'
p219
(lp220
F0.0
aF0.012892084717862365
asS'A1_y1.60_y1.80_val_err'
p221
(lp222
F0.011400412964217344
aF0.007856513483963804
aF0.007840736105217575
aF0.008423930798628727
aF0.009128629755383684
aF0.009899644456178453
aF0.010723461162204725
aF0.011637983544269826
aF0.012582426199997046
aF0.013504082533365859
aF0.010749471664539444
aF0.012542772647297895
aF0.014874645759134079
aF0.01741550428661538
aF0.019945215820141627
aF0.012804532592282309
aF0.02164930772047077
aF0.031123371236220783
aF0.03606500949951417
aF0.07388904094148217
asS'A6_y2.00_y2.50_fit'
p223
(lp224
F0.0
asS'A3_y0.80_y1.00_fit'
p225
(lp226
F0.0
aF-0.0036508768845004425
aF9.578579679065877e-05
asS'A4_y0.40_y0.60_fit'
p227
(lp228
F0.10658044239658221
aF-0.0007656090436276401
asS'A0_y0.60_y0.80_fit'
p229
(lp230
F0.0
aF-0.0037928785240627927
aF0.0006632615985686253
aF-7.84656112597215e-06
asS'A7_y2.50_y3.00_fit'
p231
(lp232
F0.0
aF-0.0004480776624233296
asS'A4_y3.50_y4.00_fit'
p233
(lp234
F1.637550959639539
aF-0.009828415444278038
asS'A3_y1.20_y1.40_fit'
p235
(lp236
F0.0
aF-0.001241775644030621
aF5.141209362010627e-05
asS'A4_y2.00_y2.50_val'
p237
(lp238
F0.7718269077077583
aF0.7532327408882314
aF0.7315342999052744
aF0.7322782443365905
aF0.7055065703466334
aF0.7193732936951985
aF0.7192959474573634
aF0.6889652120626928
aF0.6889138842094391
aF0.6609693739582522
aF0.6687990977262602
aF0.6589635996853803
aF0.6351264024771329
aF0.6056444657536729
aF0.5914305189352961
aF0.5445791693644828
aF0.46305135733279085
aF0.4213336651928829
aF0.3572637148775236
aF0.2947590939411008
asS'A6_y2.00_y2.50_val_err'
p239
(lp240
F0.007417193880195814
aF0.005097584065358534
aF0.005116535874378748
aF0.00550280761689763
aF0.005964765890991223
aF0.006472791398078094
aF0.006972890914486718
aF0.007504090908681905
aF0.008135682078601937
aF0.008809793940328256
aF0.006963422390591187
aF0.00811419042251653
aF0.009645080576799511
aF0.011391847716674766
aF0.01319427527433258
aF0.00846913793995022
aF0.014241047042662044
aF0.021673433026407018
aF0.024101715770442993
aF0.05091417519412938
asS'A2_y2.00_y2.50_val_err'
p241
(lp242
F0.013232078568551395
aF0.009114468892333017
aF0.009157472851791713
aF0.009866240476896198
aF0.010723219643672304
aF0.011720828585589536
aF0.01269296411334828
aF0.013791121759183272
aF0.015018109057557075
aF0.01631967111052669
aF0.013074462452229034
aF0.015383585858128788
aF0.018561693374036507
aF0.02216222085676165
aF0.025760693416458
aF0.01682960924360193
aF0.02922348222048779
aF0.04555478380046875
aF0.05220430782565372
aF0.1105290996513609
asS'A2_y4.50_y5.00_val'
p243
(lp244
F0.011231638619895748
aF-0.08923894901377254
aF-0.016461367319110496
aF0.06102050400459982
aF0.14263295949343505
aF-0.001562925688304845
aF0.08963856518062896
aF0.3516987713078892
aF0.1539673112079214
aF0.18620585180085317
aF0.3601609045161298
aF0.43895020157672937
aF1.1465031265055945
aF0.5437239874757618
aF0.569429795564439
aF1.5618204688717248
aF-1.2100915792797193
aF-55529.812096473426
aF0.0
aF0.0
asS'A6_y1.20_y1.40_fit'
p245
(lp246
F0.0
asS'A1_y0.80_y1.00_fit'
p247
(lp248
F0.0
aF0.010262472568530967
aF-0.0001787603014021936
asS'A4_y2.50_y3.00_val_err'
p249
(lp250
F0.008170314202160326
aF0.005629475587463232
aF0.005656409514875494
aF0.006121912020242745
aF0.006647270067795084
aF0.00717308374623359
aF0.007801516885084572
aF0.008405682463415326
aF0.009076999839166345
aF0.009775945092603723
aF0.007709607368549651
aF0.009030628485955322
aF0.010728430099973395
aF0.012681439112550036
aF0.014763611042606373
aF0.009553127404516885
aF0.016289813011802625
aF0.02539402714879213
aF0.029401483852887
aF0.07058301645532888
asS'A2_y1.60_y1.80_val'
p251
(lp252
F-0.005667525115771268
aF0.011930217772358637
aF-0.0031684621570478287
aF0.025676908044521413
aF0.04734173018560728
aF0.040629107023499755
aF0.06596899860587686
aF0.10932701343165967
aF0.12138074731854546
aF0.11703947722605292
aF0.18946079701166885
aF0.22829034560030118
aF0.2805452654797781
aF0.35044670924521765
aF0.39262642230665895
aF0.4031889974082745
aF0.48901875886700974
aF0.7111476977434872
aF0.8683219211768932
aF0.8475503733604547
asS'A1_y2.00_y2.50_val'
p253
(lp254
F0.018470396943677077
aF0.021009980706660228
aF0.04651161786083622
aF0.08043121669207849
aF0.0924907413722164
aF0.11689374311887157
aF0.1358115965343822
aF0.1512985254844975
aF0.17354497679781292
aF0.17977207074596918
aF0.19469990572612156
aF0.2116983481459746
aF0.20315862469412782
aF0.1876452924689964
aF0.1866823860139393
aF0.14573972725520656
aF0.1253146081627243
aF0.09985758774597794
aF0.06696036285658613
aF0.19170655669481926
asS'A4_y4.00_y4.50_val'
p255
(lp256
F1.731781516695748
aF1.7379059666384804
aF1.7267745851688168
aF1.7206587709333085
aF1.712575333983574
aF1.6885776650542375
aF1.6710180724907502
aF1.665434194990013
aF1.6230991344414962
aF1.616779482915476
aF1.563341840664106
aF1.5262259933055629
aF1.4716877082966418
aF1.4024674842886298
aF1.417919174226183
aF1.2416226281260239
aF1.257300401386802
aF1.1529117908391457
aF0.3745465919899556
aF-1.2764443094348727
asS'A1_y2.50_y3.00_val_err'
p257
(lp258
F0.00768842283099947
aF0.0053246293492663094
aF0.005374532736196882
aF0.00586244561287778
aF0.006376849249473317
aF0.006973540166097627
aF0.007595411082492149
aF0.008227623829548425
aF0.008974619405612673
aF0.009741213538077565
aF0.007756217137739156
aF0.00921073182727346
aF0.011071975886983798
aF0.01319475907307641
aF0.015482317880342971
aF0.010166339012006548
aF0.01789300811293508
aF0.028648838863931318
aF0.03382767728943717
aF0.08265829161723133
asS'A5_y1.60_y1.80_fit'
p259
(lp260
F0.0
asS'A1_y4.00_y4.50_val_err'
p261
(lp262
F0.015332838865783228
aF0.01100437221550195
aF0.011657781748058937
aF0.013220775475856058
aF0.015191286700786625
aF0.017082773592747087
aF0.019118622562650435
aF0.02189550917333049
aF0.02454958624866895
aF0.02811217208863448
aF0.02390135622622604
aF0.030980174238627693
aF0.03923647514755854
aF0.05026867945981621
aF0.06349594746385176
aF0.045475331836263094
aF0.11363349598830302
aF0.2933751048594426
aF0.6905686588850822
aF0.40813783243711954
asS'A3_y3.50_y4.00_fit'
p263
(lp264
F0.0
aF0.009627091098482823
aF0.0010853746569164206
aF-4.320957305748363e-05
aF4.6656032915964823e-07
asS'A2_y0.40_y0.60_val_err'
p265
(lp266
F0.019819778703601642
aF0.01356557817449019
aF0.013493824024528872
aF0.0143836970810583
aF0.015545761691496485
aF0.016911963290425356
aF0.01809035023764467
aF0.01964143969644498
aF0.021151985116447718
aF0.02314816245293954
aF0.018295156745166633
aF0.021416833388655743
aF0.025357768563660746
aF0.029920756555880113
aF0.034715628943389656
aF0.022007407753822986
aF0.036839168820646216
aF0.05552402676809602
aF0.06089708070241332
aF0.13383140828407936
asS'A3_y0.60_y0.80_fit'
p267
(lp268
F0.0
aF-0.003020878507090957
aF6.285496353541442e-05
asS'A3_y0.00_y0.20_val_err'
p269
(lp270
F0.009053138033851346
aF0.006241887390945615
aF0.006136636431550555
aF0.006563023439161251
aF0.007102927260015162
aF0.007677792241995898
aF0.008282043746042389
aF0.009017666354677137
aF0.009716146430582346
aF0.010572700979880719
aF0.008347125925537362
aF0.009851346486861331
aF0.011622746562966928
aF0.013732485394201438
aF0.015958552283241768
aF0.01008095240339361
aF0.017118351119881997
aF0.025053747102708558
aF0.028340972817209105
aF0.058944552791821446
asS'A3_y0.80_y1.00_val_err'
p271
(lp272
F0.009181500435073557
aF0.006239357442337368
aF0.006202583388926441
aF0.006655438575648148
aF0.007207278302215993
aF0.007814032639806743
aF0.008470054222249045
aF0.009216563058866888
aF0.009948238147226972
aF0.010840512376429318
aF0.008552483841177124
aF0.009974440624505521
aF0.011868183388507121
aF0.014032629703704185
aF0.01622750782020093
aF0.010347956327094714
aF0.01740745423577692
aF0.026536893056767236
aF0.02935725349351394
aF0.06331015852385487
asS'A6_y1.40_y1.60_val'
p273
(lp274
F0.011114798474270094
aF0.016616310129079055
aF-0.004786155037685859
aF0.006073828640952409
aF-0.0032207618139198533
aF-0.01388926739380881
aF0.0006939621248668122
aF-0.020620123040264168
aF0.00031086806597348075
aF-0.0007785179048931725
aF-0.010334810575920932
aF-0.010682772904157785
aF-0.014502958507786158
aF-0.01492632331740787
aF-0.033135593487938916
aF0.0022989318016182272
aF0.03731563985527607
aF-0.010892679808292994
aF-5.410052043580701e-05
aF0.04861068143507507
asS'A5_y1.60_y1.80_val_err'
p275
(lp276
F0.010196435077878423
aF0.007000610576877428
aF0.0069907797739663146
aF0.007535851926208082
aF0.008153777677643038
aF0.00881262710235381
aF0.009630766625180514
aF0.010371723416621495
aF0.011283439239507432
aF0.01210983157790779
aF0.0096952671256059
aF0.011403864788209213
aF0.013648161796975955
aF0.016116061249474203
aF0.018614571762080718
aF0.012122519832267082
aF0.020839356030326706
aF0.03050327302682413
aF0.03576837483688211
aF0.0731708414168293
asS'A1_y1.80_y2.00_val'
p277
(lp278
F0.006823368538415808
aF0.03455184081066397
aF0.0681199261245191
aF0.06345169365067874
aF0.10004154607428635
aF0.10756811928199482
aF0.11364699080121932
aF0.15929554723127765
aF0.16170235918609258
aF0.1921450178406225
aF0.1858478535698584
aF0.20756991621223697
aF0.20533991348245248
aF0.1833598684176835
aF0.18597387885862682
aF0.12122323862042282
aF0.1307451062460562
aF0.11934381455716173
aF0.12563219479826543
aF0.05717239501345015
asS'A5_y0.60_y0.80_val'
p279
(lp280
F0.0050730119742948354
aF0.005870816826849123
aF-0.002216918167342727
aF-0.012408936477301654
aF0.011570761732744593
aF-0.003858063245632206
aF0.008515817057589078
aF0.004226279118614393
aF-0.0009804305171813342
aF-0.004995158178160027
aF0.00016913011485687182
aF0.004728142391924441
aF0.006363998500947264
aF0.01838763152976075
aF-0.00582429797937573
aF-0.017382338039997735
aF-0.012970586003326316
aF-0.04870514689257601
aF0.008796931202331356
aF-0.057875324958490355
asS'A6_y3.00_y3.50_val_err'
p281
(lp282
F0.00828264266392118
aF0.00578816842854962
aF0.0058950870856939236
aF0.006442760325363409
aF0.007039444146692652
aF0.007683377994464746
aF0.00838585753538997
aF0.009154229811525012
aF0.00999746062862397
aF0.01083794693721495
aF0.008736719656488237
aF0.010451044867815222
aF0.012723215202019706
aF0.015427426970590177
aF0.018129063789609944
aF0.012157231221213644
aF0.022496909783602748
aF0.03753647086304602
aF0.04895029183786808
aF0.1467786182769281
asS'A1_y0.20_y0.40_val'
p283
(lp284
F-0.0028586119716808886
aF0.015618064733868422
aF0.016200235057320836
aF0.02434827095190142
aF0.03725713050505734
aF0.02980206289430131
aF0.03126496099995856
aF0.029456815344025267
aF0.0532791503883825
aF0.04843242949524681
aF0.06971729076568368
aF0.050288597840525195
aF0.04960164402219672
aF0.052410819282153145
aF0.022232389495906238
aF0.03831722805112403
aF0.03780806072741554
aF0.014249370427924145
aF0.04941773343965595
aF0.018143101687239677
asS'A2_y0.20_y0.40_val'
p285
(lp286
F0.004686991931663309
aF0.00644218184758922
aF0.024336781852189814
aF0.03855225463962485
aF0.026721841637157056
aF0.06246639973700263
aF0.08798585423020104
aF0.09416147773739864
aF0.08091009276805401
aF0.09856001721503449
aF0.12398173255218586
aF0.2139609293736978
aF0.22997221580699184
aF0.3051389713512849
aF0.35809023344197327
aF0.4073145118503417
aF0.5127382458866022
aF0.5881505140440575
aF0.7750068410565266
aF0.7781220524602153
asS'A1_y0.40_y0.60_fit'
p287
(lp288
F0.0
aF0.005935234541897816
aF-0.0001026678365409631
asS'A6_y4.50_y5.00_val_err'
p289
(lp290
F0.04252805564130071
aF0.030936105570996422
aF0.03371612515669155
aF0.03893101861252952
aF0.045102281098581956
aF0.053270429715094714
aF0.06074246459999945
aF0.0722574161679101
aF0.08954096610515548
aF0.09370644644628162
aF0.08390999502441678
aF0.134966275201519
aF0.16191158275987166
aF0.24163532273028768
aF0.3024052971143754
aF0.29517972130643905
aF1.4190874773957396
aF1886271586.3198726
aF0.0
aF0.0
asS'A1_y4.00_y4.50_fit'
p291
(lp292
F0.0
aF0.008882755229686727
aF0.00032929040134363507
aF-8.229867387575292e-06
asS'A6_y3.00_y3.50_fit'
p293
(lp294
F0.0
asS'A3_y1.60_y1.80_val_err'
p295
(lp296
F0.009332218002778343
aF0.006428939998156128
aF0.006407591500444088
aF0.006912620812230842
aF0.007497318501327458
aF0.008132825484467525
aF0.008871558218023604
aF0.00960491679164845
aF0.010421156203540045
aF0.01118133618878308
aF0.008989600261797195
aF0.010592043135849626
aF0.012694789546604583
aF0.015020126321376028
aF0.01730349109035327
aF0.01127963442818829
aF0.019480733859547284
aF0.028794613576857604
aF0.03377594613371541
aF0.070839220983683
asS'A2_y3.00_y3.50_val'
p297
(lp298
F0.0005957694891116118
aF0.011488982802695275
aF0.012271707038888788
aF0.016089531950014415
aF0.04541600434126639
aF0.033897755225198244
aF0.05843419654131517
aF0.10173209627442832
aF0.1451722328664888
aF0.1412595038631726
aF0.1828133553660955
aF0.26221630274546814
aF0.26338728819366236
aF0.33575096264699766
aF0.35364234527118127
aF0.44483863600385637
aF0.6087604370379439
aF0.769316063709197
aF0.8126111616315093
aF0.9939037787403765
asS'A5_y0.40_y0.60_val'
p299
(lp300
F0.015588761308558609
aF-0.0012767751025941816
aF0.00498352779085687
aF0.0020592310618727187
aF0.0021825530636774195
aF-0.007163121790535642
aF0.0028189948176481987
aF-0.002498708832875102
aF0.0128303715057477
aF0.011064853522723201
aF-0.021275875112644192
aF-0.008532044439744056
aF-0.00877517591667443
aF-0.013826046141909423
aF-0.01414134238555901
aF0.005826177056636727
aF0.005749346623846829
aF-0.015480043641455185
aF0.025174954055649824
aF-0.06550047794793057
asS'A6_y4.00_y4.50_val_err'
p301
(lp302
F0.015317816728363782
aF0.011010981877936308
aF0.011629347521062695
aF0.01315149960389362
aF0.014946066592982183
aF0.01681893534424427
aF0.019051605909553352
aF0.021592010479216765
aF0.02400111475498469
aF0.02719790108081485
aF0.023295610592106407
aF0.029914066758393514
aF0.037821569816754344
aF0.048212230867327587
aF0.05990326386148614
aF0.04390938552415567
aF0.1064649435859904
aF0.28000839778229536
aF0.6354109745452661
aF1.7706873788261865
asS'A2_y2.00_y2.50_val'
p303
(lp304
F0.009729548312277582
aF-0.00011197839305143293
aF0.001396908148679625
aF0.011429266678560413
aF0.048522809552578636
aF0.053148832464032215
aF0.07110334999403302
aF0.10228605804543706
aF0.13247806138557602
aF0.12469943494941804
aF0.20283671829299924
aF0.2296208849353619
aF0.29058972936925764
aF0.34859874580230726
aF0.3769539429908879
aF0.41120670028933415
aF0.50694670268578
aF0.5960083054075042
aF0.8282659732520473
aF0.7954892094220746
asS'A5_y3.50_y4.00_fit'
p305
(lp306
F0.0
asS'A3_y0.40_y0.60_val'
p307
(lp308
F0.006860048558308863
aF-0.010142381422087485
aF-0.02577558146995484
aF-0.030001890720494678
aF-0.02057530751893714
aF-0.02548231018988774
aF-0.04515603272989539
aF-0.041808463231429546
aF-0.0491344657404998
aF-0.05437021345096944
aF-0.047487629262436944
aF-0.04643082205157974
aF-0.04507516005280428
aF-0.02159852831738356
aF-0.029894848009252815
aF0.006649643939548883
aF0.07444110426264737
aF0.08567953688443432
aF0.1357550621128234
aF0.09819616606202078
asS'A1_y0.60_y0.80_fit'
p309
(lp310
F0.0
aF0.008428834972230681
aF-0.0001449141362517307
asS'A7_y0.20_y0.40_fit'
p311
(lp312
F0.0
asS'A5_y0.60_y0.80_fit'
p313
(lp314
F0.0
asS'A0_y0.20_y0.40_val'
p315
(lp316
F-0.012056864864628638
aF-0.00499685438710615
aF0.003859882873521943
aF0.007361575648773393
aF0.024461397402032747
aF0.022592085645226946
aF0.05164073358731388
aF0.06480303569795959
aF0.06224758614336337
aF0.13055493424038447
aF0.13057527733662316
aF0.18844651791463599
aF0.264679532615055
aF0.3367010295885577
aF0.3629178665837577
aF0.47100574572273507
aF0.6549002945695586
aF0.8111261028527972
aF0.8014494015507388
aF0.8494061085440193
asS'A0_y3.00_y3.50_val'
p317
(lp318
F-0.005645687518850808
aF-0.00495672441278491
aF-0.00041224233521199916
aF0.017697062585232567
aF0.0047641195547351405
aF0.028599931118145024
aF0.06175994859008
aF0.06650629356255158
aF0.11645280191989286
aF0.1272966410338407
aF0.177593928310721
aF0.22905691655707766
aF0.29024347809517365
aF0.34355980752298176
aF0.40684499262616297
aF0.463065584852096
aF0.5908248091434709
aF0.7395075924674385
aF0.9064096552703119
aF0.8102322361792436
asS'A4_y1.00_y1.20_fit'
p319
(lp320
F0.24830145918636237
aF-0.001672961372800215
asS'A0_y4.50_y5.00_val_err'
p321
(lp322
F0.051069696350271816
aF0.03685843391003798
aF0.04028874783596828
aF0.04720276877631645
aF0.054244850416693496
aF0.06355903741488442
aF0.07460982838380589
aF0.08909607951679285
aF0.10698329081596313
aF0.1105985296818121
aF0.10167351955181829
aF0.16171640068106172
aF0.1929088651906052
aF0.2983576478595887
aF0.37139230193324363
aF0.383092495337812
aF1.607758786051721
aF12138502414.149921
aF0.0
aF0.0
asS'A1_y3.50_y4.00_fit'
p323
(lp324
F0.0
aF0.008685649409796964
aF0.00019482103585857433
aF-5.394416326642685e-06
asS'A6_y1.60_y1.80_val'
p325
(lp326
F0.015265949858016811
aF-0.0024518350699927866
aF0.01528187638440214
aF-0.011000029123969832
aF-0.010157873326641517
aF0.0004665757785627783
aF0.012022363849792089
aF0.004227135501898663
aF-0.020617501419423485
aF0.007396571248680918
aF-0.002209975686350985
aF-0.009053070727790343
aF-0.012881060327449645
aF-0.03225933634292886
aF-0.008235155261939853
aF-0.009062762866018967
aF-0.005855816485029092
aF-0.029839477040543714
aF-0.013810786499691153
aF0.03378062923521184
asS'A4_y1.60_y1.80_val'
p327
(lp328
F0.4743421793886076
aF0.4615591082759446
aF0.46992302439731576
aF0.43777632454155824
aF0.43485888987398197
aF0.41658140065237087
aF0.4172856664258312
aF0.4294561429477085
aF0.44339685810175106
aF0.45243930688789596
aF0.42473121957571697
aF0.4103784544988707
aF0.38749523586494705
aF0.387644465827724
aF0.36503112114294006
aF0.345369868960707
aF0.30186353388519443
aF0.27507295702590645
aF0.22853779345006772
aF0.12326325142362375
asS'A3_y1.40_y1.60_val'
p329
(lp330
F0.0023909071855872785
aF-0.005330962816058287
aF-0.002868427028205125
aF-0.0038799757216263584
aF-0.0064516489012896965
aF0.004832737897397522
aF0.000838477687132628
aF-0.0014070943630011302
aF-0.0034329836250114355
aF0.016991488902499782
aF0.01767016193315831
aF0.03247909545063612
aF0.025951261724304838
aF0.03243363846128597
aF0.002279206076216865
aF0.09835596405275959
aF0.1644560383645811
aF0.2574540997288433
aF0.38409851294931513
aF0.5404325094900012
asS'A2_y1.40_y1.60_val'
p331
(lp332
F0.015549630173788798
aF-0.0055727669923356475
aF0.030735115703303662
aF0.014116009413296939
aF0.054205539327794386
aF0.03167232850938121
aF0.07563982069269283
aF0.07952977950535042
aF0.11542583917084555
aF0.14068278525318412
aF0.17453273369448283
aF0.19844734543913323
aF0.28400502129278854
aF0.27360018198854213
aF0.3285463732080738
aF0.39297787650585625
aF0.5013045701527659
aF0.6499837732529307
aF0.8281770309032971
aF0.9664071514061985
asS'A1_y3.50_y4.00_val_err'
p333
(lp334
F0.009858162336897704
aF0.007005978369154491
aF0.0072423691136369065
aF0.008071622913855358
aF0.008978315018737476
aF0.009922857358940732
aF0.01100485813862562
aF0.012264337586822521
aF0.013433328127369018
aF0.015054698169836343
aF0.012202825354847999
aF0.015150844419329621
aF0.018748374013805743
aF0.023559214537513976
aF0.027969916157116963
aF0.019787199784143193
aF0.0408313943111379
aF0.07573297011849744
aF0.12488448654797994
aF0.5167798093362019
asS'A4_y1.40_y1.60_fit'
p335
(lp336
F0.3859310272238189
aF-0.0021756408423474656
asS'A0_y4.50_y5.00_fit'
p337
(lp338
F0.0
aF0.008892823629735688
asS'A4_y1.60_y1.80_fit'
p339
(lp340
F0.4956741911896473
aF-0.013033592915014158
aF0.0009551301022385425
aF-2.9559234485918603e-05
aF2.89376156134378e-07
asS'A6_y4.00_y4.50_fit'
p341
(lp342
F0.0
asS'A3_y0.60_y0.80_val'
p343
(lp344
F-0.012995779177018212
aF-0.014561487009052467
aF-0.013098725462809442
aF-0.027883803383135473
aF-0.026503690480733075
aF-0.018832727446029422
aF-0.031428735731830165
aF-0.02833136973751168
aF-0.02446787162996952
aF-0.02866385499810124
aF-0.036620570938302316
aF-0.04697746300849113
aF-0.03364026821004475
aF-0.027958437221668655
aF0.010813555236826674
aF-0.0009776768848259222
aF0.04682787502699975
aF0.13931242163148144
aF0.21915846232942976
aF0.2380832448377027
asS'A6_y0.40_y0.60_val'
p345
(lp346
F-0.010036793276223898
aF-0.0066600640236987325
aF-0.006152185014861956
aF0.015127160522783586
aF0.006477667090720022
aF0.0004514592321540169
aF0.004143316329991338
aF-0.007932119183436866
aF0.014614445533800808
aF-0.012432832083688205
aF0.0016917573783526386
aF-0.008569732747171476
aF-0.008813948855920956
aF-0.0033194380151368346
aF0.008520023251097887
aF0.011948722921792082
aF-0.016672716060675094
aF-0.002040498003266308
aF-0.007585028153991237
aF0.016218495950053355
asS'A7_y0.80_y1.00_val_err'
p347
(lp348
F0.009178573267784615
aF0.006261183812727668
aF0.006193514560901259
aF0.006613030830014036
aF0.007157019434987349
aF0.007727600543938136
aF0.008337506787160704
aF0.009014496342074746
aF0.009754532967516164
aF0.010584038348027673
aF0.008290801286605266
aF0.009655124536817248
aF0.011402856516872839
aF0.013349319996169787
aF0.015348488844857297
aF0.009730501283457387
aF0.01611238516813025
aF0.024200827338512546
aF0.026256410008327655
aF0.0564662020142303
asS'A3_y1.60_y1.80_val'
p349
(lp350
F-0.006451340309065331
aF-0.006325930884765456
aF-0.0027203700828585847
aF0.008082641011515594
aF0.0015149809415623539
aF0.013463619231422237
aF0.01755798501419309
aF0.028621302982435735
aF0.03275979669641828
aF0.029750733774059256
aF0.04850273639423198
aF0.044489283213511914
aF0.06999940128787727
aF0.041629014930140484
aF0.08929392528121063
aF0.10513373016459414
aF0.18911405168451006
aF0.34679102591373145
aF0.42578057241274564
aF0.6236951376350749
asS'A7_y1.40_y1.60_val_err'
p351
(lp352
F0.009242875835431255
aF0.00636123479799469
aF0.006320730587942771
aF0.006781552822650231
aF0.007369780535359622
aF0.008005735002590667
aF0.00859295281644084
aF0.009293092123370521
aF0.010020059073505826
aF0.010759436364884238
aF0.008602149644483033
aF0.010046584752232872
aF0.011853398343754125
aF0.014005075631813498
aF0.016459778152003425
aF0.010275829156942324
aF0.01715135770255575
aF0.026384738823711104
aF0.028966770826391663
aF0.058018784793251954
asS'A7_y3.00_y3.50_val_err'
p353
(lp354
F0.006775547547821706
aF0.004731797296186276
aF0.004837010324251311
aF0.00528253190405768
aF0.005782388860998248
aF0.00632996305725295
aF0.006935356314404314
aF0.007576071234752269
aF0.008294740554826223
aF0.009013712047230968
aF0.0072981466211885036
aF0.00876341113027575
aF0.010753700926257246
aF0.013134596997430312
aF0.01547999656813622
aF0.010481085108910779
aF0.019657168536912736
aF0.03334784383720623
aF0.04373465091496466
aF0.13017154835318848
asS'A0_y1.80_y2.00_fit'
p355
(lp356
F0.0
aF-0.002844389630816707
aF0.0007134307922747104
aF-9.287181776155103e-06
asS'A7_y1.40_y1.60_fit'
p357
(lp358
F0.0
asS'A5_y0.20_y0.40_fit'
p359
(lp360
F0.0
asS'A7_y1.20_y1.40_val_err'
p361
(lp362
F0.00918895946158537
aF0.006328108196575701
aF0.006291861604326543
aF0.0067262165127972605
aF0.007277478016794288
aF0.007873829871987911
aF0.008475988899204418
aF0.009104082174891837
aF0.009896538984087941
aF0.010702428844105848
aF0.008449396715216112
aF0.00982276414327448
aF0.01162116622976604
aF0.01377347628126147
aF0.0157323102393757
aF0.010037368134010205
aF0.016548791610353684
aF0.025165696020103486
aF0.027699625863665173
aF0.05619885938630674
asS'A3_y4.00_y4.50_val_err'
p363
(lp364
F0.012558266177988726
aF0.009016115522802619
aF0.009577277394138913
aF0.010883580761236536
aF0.012473253973130365
aF0.01412031565344336
aF0.015871695767803135
aF0.018247219692177852
aF0.02061087280548509
aF0.023606397661352634
aF0.02031154541343795
aF0.0266762665885912
aF0.034172290598466014
aF0.04453034953584002
aF0.056929623966653575
aF0.042200760352189635
aF0.11155626175827865
aF0.3010855142505269
aF0.9710295044331935
aF1.0688554850166205
asS'A2_y0.80_y1.00_val_err'
p365
(lp366
F0.020030856553760076
aF0.013655493937858107
aF0.013524785453223217
aF0.014487218930869288
aF0.015644400986636914
aF0.01697551611563576
aF0.018409244820429018
aF0.020035652316304855
aF0.02158355187874715
aF0.02349500621777561
aF0.018599866448020506
aF0.021727809191726323
aF0.025833285957945807
aF0.03045612008445345
aF0.03527731858449522
aF0.0224308068889885
aF0.03772495118110328
aF0.057109082849820116
aF0.06301293931054028
aF0.13546054349776235
asS'A6_y0.60_y0.80_val'
p367
(lp368
F0.014011542752300566
aF-0.005160291712431181
aF0.0033766212168592925
aF0.005506231560188034
aF-0.0038425265933237783
aF-0.004268101912011493
aF0.010686402770127893
aF-0.00033206078107083
aF-0.001988010613445585
aF0.008409510977256058
aF0.004361880354344503
aF-0.0031679089607380296
aF0.013891446299887604
aF0.009253534163996992
aF-0.013974226275741174
aF-0.007194303296757097
aF0.002836488787867078
aF-0.012514779607679296
aF-0.016864321372547023
aF0.032720785237338755
asS'A4_y0.80_y1.00_fit'
p369
(lp370
F0.20565847407035154
aF-0.001602913730113474
asS'A3_y0.20_y0.40_fit'
p371
(lp372
F0.0
aF-0.0045358225248061795
aF0.00010107875295458724
asS'A3_y0.40_y0.60_val_err'
p373
(lp374
F0.009066567344023765
aF0.0062224889145083345
aF0.0061858078376592915
aF0.006608426778825733
aF0.0071430115430861675
aF0.007771192324673312
aF0.008344340330505365
aF0.009075827837015082
aF0.009761330110343313
aF0.010662038700924298
aF0.008419658989577545
aF0.009881171585804312
aF0.01166789617496346
aF0.013766155168413601
aF0.015990349660086084
aF0.01015307283841656
aF0.017006259803048523
aF0.02569361635821717
aF0.028143298532123617
aF0.061717908537432475
asS'A6_y1.20_y1.40_val'
p375
(lp376
F-0.016144906742321184
aF-0.0029131004248851592
aF-0.016580145804963625
aF0.0007645564902211022
aF-0.009837673024033707
aF0.01669778273150195
aF0.01611818715759195
aF0.007907994573678597
aF0.006235500890212639
aF-0.02385305925130684
aF-0.004040371903802331
aF-0.002581724074426811
aF0.008489007952329247
aF-0.0011028066430867687
aF-0.010056949169824754
aF-6.796149502237198e-05
aF0.00678424871389049
aF-0.019674562848206744
aF-0.008055612630875116
aF-0.12100080179514561
asS'A0_y3.00_y3.50_fit'
p377
(lp378
F0.0
aF-0.003793398721180119
aF0.0007388709401327642
aF-9.55433081861943e-06
asS'A5_y1.00_y1.20_val'
p379
(lp380
F-0.007065373442975877
aF-0.002939385912461643
aF-0.003949386679732252
aF-0.006681584712632363
aF0.0022175249676584115
aF-0.0021874806632678086
aF-0.00493809515455574
aF-0.0041961062806583
aF0.005303775215664655
aF-0.0020315421485246495
aF0.007364731591102032
aF-0.0010373231940880002
aF-0.01039295927087846
aF0.029215969593647837
aF0.0057881722342379704
aF-0.006175055474154245
aF-0.010660197752957451
aF-0.03325705179832507
aF-0.05483338331358022
aF0.1014411337525342
asS'A7_y1.00_y1.20_val_err'
p381
(lp382
F0.009195755630995816
aF0.00625096230954605
aF0.006257347583219785
aF0.006690102586938023
aF0.007214287195663454
aF0.007786618478089105
aF0.008409283345944653
aF0.009060546350154845
aF0.009838617042505798
aF0.010645830384599762
aF0.00839353453424269
aF0.009730650110268484
aF0.011562313116030957
aF0.013708977165923768
aF0.015774096180775913
aF0.009896727954603649
aF0.016233426212005256
aF0.024711046348735437
aF0.0271849817748383
aF0.054302937182620144
asS'A2_y0.40_y0.60_fit'
p383
(lp384
F0.0
aF0.0055688898993705716
aF5.151574769738992e-05
asS'A1_y1.40_y1.60_val_err'
p385
(lp386
F0.011315746655311144
aF0.007781050501103437
aF0.007751981194863943
aF0.008332773361340534
aF0.009037588741468412
aF0.009853791456952695
aF0.010599057255259932
aF0.011425079208667492
aF0.012337426038722525
aF0.013329771647621029
aF0.01058473481356976
aF0.01235703473288655
aF0.01454405038982458
aF0.017027228740893286
aF0.019844678952658817
aF0.012409230557627432
aF0.020575806666217857
aF0.03174770576812394
aF0.03485173849415021
aF0.06975571029270794
asS'A3_y0.60_y0.80_val_err'
p387
(lp388
F0.009110393647982128
aF0.006251266055490678
aF0.0061695498500662655
aF0.006652943459938202
aF0.007161831241719725
aF0.007778870736169589
aF0.00845883896347464
aF0.009059362342356601
aF0.00987680536088577
aF0.010667397542082277
aF0.008518386254681177
aF0.010009035251754625
aF0.01173094985932494
aF0.013935022509223747
aF0.016277049378586744
aF0.010251125798316729
aF0.017164831477130254
aF0.026271773775813634
aF0.029486583272762837
aF0.060816716122394227
asS'A2_y1.60_y1.80_val_err'
p389
(lp390
F0.020352705104183907
aF0.013971476247371216
aF0.013958595604254664
aF0.015061975753948796
aF0.016337761991934804
aF0.017741359223428146
aF0.01926271492261092
aF0.020886586628172478
aF0.022558442388872803
aF0.02422592320299431
aF0.019483979446361176
aF0.023001834638481978
aF0.027505177423126387
aF0.0326281286469311
aF0.0374637558531287
aF0.024466192602073875
aF0.042000766809143913
aF0.06180703315423526
aF0.07198142653633051
aF0.1479734804498644
asS'A1_y0.60_y0.80_val_err'
p391
(lp392
F0.011098415764225447
aF0.007645026043462233
aF0.007527995304467242
aF0.008134487881377083
aF0.008708555407691347
aF0.00946421469060844
aF0.010233700506286017
aF0.010942706644689814
aF0.011908017060497319
aF0.012818896039209013
aF0.010177127653299114
aF0.011832787448751304
aF0.01373496832335541
aF0.01616182995580196
aF0.018734676419277167
aF0.01163510159549547
aF0.01908206954949075
aF0.028699291152375808
aF0.03188489415237787
aF0.06438787435430236
asS'A6_y1.60_y1.80_fit'
p393
(lp394
F0.0
asS'A1_y4.00_y4.50_val'
p395
(lp396
F0.009953995529147646
aF0.0277149188306929
aF0.05578629543839142
aF0.07826903683695266
aF0.09654570196027791
aF0.1389393052322824
aF0.15266622805147725
aF0.16626371078050967
aF0.18148688522742917
aF0.26347132164784964
aF0.24695893784921438
aF0.3064091102714177
aF0.3762937238057299
aF0.36698116899015987
aF0.36053371624395525
aF0.23283399969666696
aF0.40278110092819974
aF-0.05609035139259631
aF0.6774457553590987
aF0.10773447902186789
asS'A6_y3.50_y4.00_val_err'
p397
(lp398
F0.00984174121197513
aF0.006979403015985899
aF0.0072152698257819696
aF0.008000409087233257
aF0.008896340760046133
aF0.009829095729556555
aF0.010839496712973358
aF0.012036149407239046
aF0.013069388207046083
aF0.014584604787978565
aF0.011903249119348742
aF0.014685739338925941
aF0.018072049335004663
aF0.022688353295386668
aF0.026753666100327894
aF0.01902013802639536
aF0.03845859357697004
aF0.07123058061028756
aF0.1133745194101251
aF0.4281627867317409
asS'A0_y1.00_y1.20_val'
p399
(lp400
F-0.0030877760836420373
aF0.0007509142845558052
aF0.016487529344869845
aF0.008642463757841806
aF0.007868128746772118
aF0.04004468438794846
aF0.05222495011812166
aF0.08447510472783025
aF0.11508663427465596
aF0.1438450811082909
aF0.1645071618632365
aF0.2255328062435354
aF0.29188679452792304
aF0.3747079320003959
aF0.3726387672718309
aF0.4829997292785889
aF0.6456611345016714
aF0.7159254602194861
aF0.8791139895712572
aF0.8719763753537089
asS'A6_y1.80_y2.00_val_err'
p401
(lp402
F0.011578082029580081
aF0.007880536537460951
aF0.007901040757905495
aF0.008478411589989548
aF0.009130310712037315
aF0.009918729195075237
aF0.010771175004877126
aF0.011521713839697838
aF0.01248046186506117
aF0.013500142107732748
aF0.010544838989710507
aF0.012408852295055057
aF0.014492854248204465
aF0.017127272692206798
aF0.019908051530246516
aF0.01254710454963794
aF0.020624948115680497
aF0.03142770596501219
aF0.03464925915164394
aF0.07307481666579126
asS'A7_y1.80_y2.00_fit'
p403
(lp404
F0.0
asS'A4_y2.00_y2.50_fit'
p405
(lp406
F0.7616955496019241
aF-0.0043690235921404474
asS'A2_y3.50_y4.00_fit'
p407
(lp408
F0.0
aF0.0007674977193187216
aF0.0005725475867888845
aF-8.61690018478064e-06
asS'A1_y1.00_y1.20_fit'
p409
(lp410
F0.0
aF0.005262127056720134
aF0.0007407482882160685
aF-3.8099821820089075e-05
aF4.373869910241694e-07
asS'A3_y3.50_y4.00_val_err'
p411
(lp412
F0.00806704918517104
aF0.005740208499562549
aF0.0059339869648133165
aF0.006628188088936124
aF0.007382387256503657
aF0.0081944875425269
aF0.009104565871850667
aF0.010230748211197543
aF0.01119142071100807
aF0.012606946306450206
aF0.010377006345613499
aF0.012937870708481965
aF0.01622757752672578
aF0.02061300000697518
aF0.02493189371163944
aF0.018071166890058984
aF0.039336538151898595
aF0.07598619326179915
aF0.12742745465427294
aF0.5689425433125068
asS'A5_y2.00_y2.50_val_err'
p413
(lp414
F0.006626846822935768
aF0.004549893276666183
aF0.004565316789171843
aF0.004939055232912427
aF0.005364512237621944
aF0.005863906408116164
aF0.006337277805830529
aF0.006868304127604105
aF0.007493201205465967
aF0.008109862412791567
aF0.006494726610758159
aF0.00761662528923312
aF0.009186146327742948
aF0.010956037514508743
aF0.012790225470467403
aF0.008370908999975703
aF0.014473021783663708
aF0.022559073095304725
aF0.02566139292163544
aF0.055016486570147224
asS'A5_y0.00_y0.20_fit'
p415
(lp416
F0.0
asS'A4_y2.50_y3.00_fit'
p417
(lp418
F1.088929810684263
aF-0.006450266379337738
asS'A1_y1.20_y1.40_fit'
p419
(lp420
F0.0
aF0.0122137765773358
aF-0.0002118841968810326
asS'A7_y4.00_y4.50_val_err'
p421
(lp422
F0.012555665030391096
aF0.009012250331725815
aF0.009516520326981942
aF0.010772931367264281
aF0.012256481333523542
aF0.013808078960426606
aF0.015704637743236542
aF0.01780006495138602
aF0.019904808613141825
aF0.02253031426160616
aF0.01933118626002506
aF0.025006093483501867
aF0.03161197581377893
aF0.040580047881454084
aF0.05100298137199901
aF0.03756084724034622
aF0.09115610854483362
aF0.24678222825831098
aF0.5049857651894084
aF1.7893425826173033
asS'A0_y1.00_y1.20_val_err'
p423
(lp424
F0.013798996098213775
aF0.009357069857050957
aF0.009333263672692013
aF0.009989504408729121
aF0.010685376373650201
aF0.011524063639399285
aF0.012382623741504629
aF0.013299356029665773
aF0.014367729144586977
aF0.0154844143001209
aF0.012199042565852952
aF0.014038437468029664
aF0.016517970440129964
aF0.01944991067935328
aF0.02237659901439469
aF0.014020873774906836
aF0.02304702301206005
aF0.035147031222479405
aF0.039055885103558806
aF0.07809009378657844
asS'A4_y2.50_y3.00_val'
p425
(lp426
F1.0999467502682312
aF1.0729561429226337
aF1.050785857417647
aF1.0317026413890644
aF1.0360879861472725
aF1.0096310960331676
aF1.0016123926886136
aF1.0016250902196988
aF0.9785455390930239
aF0.9748165798084285
aF0.9505580503034073
aF0.9336495127063641
aF0.8881207840242982
aF0.8500664979166983
aF0.8197431767188261
aF0.7764345659646225
aF0.6516125264056629
aF0.5647023941207492
aF0.46568628904841153
aF0.4019848287984239
asS'A1_y1.40_y1.60_val'
p427
(lp428
F0.0052704666467140865
aF0.031951221914809744
aF0.041028623950327
aF0.07996728661940918
aF0.09462775740856604
aF0.105387529390881
aF0.13344753345881694
aF0.14416935769128786
aF0.17316544941744574
aF0.18429911764676932
aF0.1742157076559136
aF0.1892212427674213
aF0.18249814293244068
aF0.17924606111743493
aF0.15174973703390487
aF0.09617831838727625
aF0.056757352816428984
aF0.1011902796424569
aF0.05308901346762236
aF0.06407391746961999
asS'A1_y3.00_y3.50_fit'
p429
(lp430
F0.0
aF0.011198202268326518
aF-3.491200258895835e-05
aF-2.1625769607253953e-06
asS'A3_y3.00_y3.50_fit'
p431
(lp432
F0.0
aF0.008950359116457252
aF0.0007804325513245357
aF-3.446319924336615e-05
aF3.93637113402074e-07
asS'A7_y1.40_y1.60_val'
p433
(lp434
F0.0018422216676287986
aF-0.005934171192984657
aF-0.006221225466010237
aF0.002176836827297393
aF0.0048340472267430126
aF-0.012057023056054226
aF2.3349771715213627e-06
aF-0.00292746258780273
aF-0.008507002595366965
aF-0.0013603284988034194
aF-0.0044020567910207165
aF0.003145592654177475
aF-0.0006550637175369469
aF-0.020267210505477386
aF-0.008113663149446877
aF-0.011955736987662264
aF-0.04542417838737172
aF-0.04865818586911477
aF-0.06535123947067557
aF-0.0590717643090072
asS'A6_y0.20_y0.40_fit'
p435
(lp436
F0.0
asS'A4_y0.00_y0.20_fit'
p437
(lp438
F0.021398400519314853
asS'A5_y0.60_y0.80_val_err'
p439
(lp440
F0.009946707339055595
aF0.00680450717764011
aF0.00671031350933425
aF0.007236823867550643
aF0.007781888380620687
aF0.008455464555511428
aF0.009172820953849829
aF0.009807520856244901
aF0.010688593214596727
aF0.011526749924010636
aF0.009191819393874687
aF0.010773414612045146
aF0.012629082451462709
aF0.014963318656977765
aF0.017532330289683082
aF0.011023855385382515
aF0.018388164617072874
aF0.028104691797739414
aF0.03130608854619275
aF0.06435079112750215
asS'A7_y0.20_y0.40_val_err'
p441
(lp442
F0.009039756411112633
aF0.0062087601161712695
aF0.006144992339560825
aF0.006550349364592263
aF0.007096453143000129
aF0.007624473418660547
aF0.008265197869921042
aF0.008930775164999355
aF0.009572522740520862
aF0.010307650978113038
aF0.008130695066445223
aF0.009448250942060006
aF0.011098851711221542
aF0.013126186907459843
aF0.014955730314848925
aF0.009513890074334912
aF0.015619353297107915
aF0.023415542075207078
aF0.025812944598311047
aF0.04966128449616392
asS'A3_y3.00_y3.50_val_err'
p443
(lp444
F0.006786883264646212
aF0.004742347259888811
aF0.004854229354644786
aF0.00530383286781731
aF0.005841960994071831
aF0.006399528148371303
aF0.0070540708698051385
aF0.00777956695272253
aF0.008562029913227142
aF0.009329767954893679
aF0.0076068947340138075
aF0.009230638292007267
aF0.011377937883813454
aF0.014003266204198077
aF0.016626318061301316
aF0.011438283796696636
aF0.02239126177632605
aF0.03949059052886594
aF0.05360175600723444
aF0.17135631373636748
asS'A5_y1.80_y2.00_fit'
p445
(lp446
F0.0
asS'A5_y2.00_y2.50_val'
p447
(lp448
F-0.004857562336696645
aF-0.003259105063300436
aF0.002226899112667064
aF-0.0008722332951861005
aF0.0025562786237609083
aF-0.008478807068437396
aF-0.005724220983616445
aF0.00890628064366862
aF-0.002067716258111107
aF-0.001166414657365999
aF-0.00048697151204221906
aF0.0067483278696860785
aF0.008204176505774449
aF-0.0016668098921426306
aF0.006709672038257009
aF-0.013530950437894023
aF0.01731317489597108
aF-0.010495145003690497
aF-0.06532928457646092
aF-0.02915820842609639
asS'A2_y3.00_y3.50_fit'
p449
(lp450
F0.0
aF-0.0002991536931426786
aF0.0005546133173178498
aF-7.453919186856388e-06
asS'A1_y1.80_y2.00_val_err'
p451
(lp452
F0.011569129801973055
aF0.00789360036471317
aF0.007943846587399519
aF0.008564342358561695
aF0.00924357812156705
aF0.010030466255682753
aF0.010976305927929085
aF0.011784835757644411
aF0.01286030052787266
aF0.013878061904488318
aF0.010946240058529764
aF0.012832505312554735
aF0.015070040745995935
aF0.017789075589200194
aF0.020794616881151546
aF0.013115514785336638
aF0.021759785146053905
aF0.0336613627113756
aF0.03754524131002569
aF0.07890546670122596
asS'A6_y1.40_y1.60_val_err'
p453
(lp454
F0.011313200936075078
aF0.007777773749028957
aF0.007711775019410623
aF0.008260296816916615
aF0.008946001098551462
aF0.009713281004928886
aF0.010427698443738549
aF0.011214977213265547
aF0.012047459680340405
aF0.012961424588493819
aF0.010291836378086519
aF0.011930726559475417
aF0.013999430356064694
aF0.016435234898423415
aF0.01923377706985059
aF0.011891713875970624
aF0.019593984467604183
aF0.029833142233769903
aF0.03228428026271966
aF0.06459251938611445
asS'A5_y4.50_y5.00_fit'
p455
(lp456
F0.0
asS'A6_y1.00_y1.20_val_err'
p457
(lp458
F0.011262228773362918
aF0.00764105633776875
aF0.0076347319823822455
aF0.008151850542566792
aF0.008786822038766863
aF0.009458683349292292
aF0.010209057043952918
aF0.010887002300865712
aF0.011806848281276061
aF0.01278092919454396
aF0.010046142013403661
aF0.011555737790398491
aF0.013665470080477042
aF0.016051094198713752
aF0.01846793802861626
aF0.011475840583244119
aF0.01853586198190293
aF0.027919120511065664
aF0.030312552704710824
aF0.0599674981384193
asS'A5_y0.40_y0.60_fit'
p459
(lp460
F0.0
asS'A7_y0.60_y0.80_val_err'
p461
(lp462
F0.009110972035800075
aF0.006247255347579295
aF0.006145501365746446
aF0.006607427143921794
aF0.007106061470165125
aF0.00767447809741676
aF0.00834105042334469
aF0.008907006869412442
aF0.009651101894377507
aF0.010386942955813149
aF0.00828731031619313
aF0.00959600315526471
aF0.011245347438871277
aF0.013257459987398228
aF0.015484393988799455
aF0.009640386065575973
aF0.015805945993948255
aF0.023819017417617563
aF0.026376632055739146
aF0.0539557797755776
asS'A2_y0.40_y0.60_val'
p463
(lp464
F-0.038012113735569134
aF0.013878728795324544
aF0.025352767371064115
aF0.007435219080625322
aF0.04246087173968023
aF0.06692690667418014
aF0.055772938902434094
aF0.09971529233190873
aF0.12998887778923915
aF0.1397445443056615
aF0.13875194713483688
aF0.1988718902803933
aF0.23839452473323522
aF0.2814324423905644
aF0.3292562976700947
aF0.379212359950987
aF0.5474817820335727
aF0.6131467998606187
aF0.6588389317667469
aF1.0979580364784385
asS'A0_y1.20_y1.40_fit'
p465
(lp466
F0.0
aF-0.0020979121225437047
aF0.0006011710382735885
aF-7.3313780123334185e-06
asS'A5_y1.60_y1.80_val'
p467
(lp468
F0.011629203235397415
aF-0.005642845453702788
aF-0.008247915422415795
aF-0.003669977124876118
aF0.0033243439913332802
aF-0.011043801263946496
aF-0.0053621751558907225
aF-0.007988454527411412
aF-0.020230241753024167
aF-0.012005831619226226
aF0.005146193398494088
aF-0.0015933059384688468
aF0.0006726505304395628
aF-0.006074418745201741
aF0.008175502859803133
aF-0.0031037256807165867
aF-0.005997806188704251
aF-0.05557089382877158
aF0.005274645237473074
aF-0.009577193072920038
asS'A0_y0.00_y0.20_fit'
p469
(lp470
F0.0
aF-0.002862551285156417
aF0.0005726201805790875
aF-6.587363728483052e-06
asS'A1_y2.50_y3.00_fit'
p471
(lp472
F0.0
aF0.009939722743393147
aF-0.00012311470709478581
aF2.5183716557139693e-05
aF-1.2576076516589945e-06
aF1.503090644437978e-08
asS'A6_y0.00_y0.20_fit'
p473
(lp474
F0.0
asS'A1_y1.60_y1.80_fit'
p475
(lp476
F0.0
aF0.008322758351080067
aF0.0005169852862855276
aF-3.0478669971838223e-05
aF3.554992115425814e-07
asS'A7_y3.50_y4.00_val'
p477
(lp478
F0.015084924132404557
aF0.00496776583514406
aF0.0031575107417508865
aF0.006211222296520168
aF-0.005502452656264133
aF0.008051360252459453
aF0.006350119403875092
aF0.017121666561676074
aF-0.012213379328622109
aF0.005885706956979269
aF0.0023932061004904494
aF-0.016974015134521507
aF-0.02913831848730023
aF0.004996318176341161
aF-0.0771200399919169
aF-0.0026262752835466397
aF0.005060406688207685
aF0.03159478676905762
aF0.06595281694187358
aF0.15914929684574047
asS'A2_y4.00_y4.50_val_err'
p479
(lp480
F0.02746213259435554
aF0.019665006134962307
aF0.020890999351347146
aF0.023633246255265226
aF0.02696604069496214
aF0.03041799926403518
aF0.03435067642799682
aF0.03923750721892423
aF0.04435788169863785
aF0.050108452995269594
aF0.04324866658588404
aF0.05639403497769044
aF0.07215437656618215
aF0.09271095240867606
aF0.11789309321507309
aF0.08600228585885095
aF0.21361619040072793
aF0.5649817677258879
aF1.2755881179102686
aF3.00420065064162
asS'A1_y0.20_y0.40_fit'
p481
(lp482
F0.0
aF0.003728971700328848
aF-6.193745175151182e-05
asS'A6_y1.40_y1.60_fit'
p483
(lp484
F0.0
asS'A0_y3.50_y4.00_fit'
p485
(lp486
F0.0
aF-0.001864867839587031
aF0.0006100183873785619
aF-7.459175131286342e-06
asS'A2_y0.80_y1.00_val'
p487
(lp488
F-0.0007965376883175605
aF-0.011833848517515339
aF0.004880647549222381
aF0.04158731011701792
aF0.03350537548680025
aF0.05384816070466947
aF0.07585802794384937
aF0.11153396086085708
aF0.10420982645674336
aF0.1269557535493517
aF0.19652502576295883
aF0.17884045634303378
aF0.2583908499939606
aF0.2947632516059365
aF0.3657604995437074
aF0.40144702197361765
aF0.6022518828506254
aF0.6205109803497536
aF0.7469793552869816
aF0.7563215404201945
asS'A3_y0.80_y1.00_val'
p489
(lp490
F0.00687690091452189
aF-0.017981897165112927
aF-0.028916439471886872
aF-0.023181838958076437
aF-0.022696423863074466
aF-0.03007150378987967
aF-0.04031254382040522
aF-0.0313477430972234
aF-0.016119027127960785
aF-0.0386221110794703
aF-0.020902491889857936
aF-0.029608575637698187
aF-0.01753480460922877
aF-0.02554430139722765
aF-0.01871698627772492
aF0.058258212152001325
aF0.11453385769061786
aF0.13914605900151233
aF0.2365073819605306
aF0.30618750509524356
asS'A2_y4.50_y5.00_val_err'
p491
(lp492
F0.07527759623594041
aF0.05448396173696214
aF0.06028195518118452
aF0.06953463862211817
aF0.08222001361598649
aF0.09613734411372324
aF0.11373481723866592
aF0.1329794520493696
aF0.16230716390375788
aF0.17117626827083401
aF0.15863780181946657
aF0.2521643084749014
aF0.31398713863319533
aF0.48314846171777315
aF0.6345737945259877
aF0.6206587320253892
aF2.729848807961911
aF3965103005.961297
aF0.0
aF0.0
asS'A0_y0.60_y0.80_val'
p493
(lp494
F0.0033904804714734787
aF-0.0060420564979522876
aF0.00042062042884001533
aF-0.002082253926769325
aF0.01015652978020485
aF0.017081485441182175
aF0.05412214500068477
aF0.06095586628029221
aF0.1107772893640136
aF0.1161101091216307
aF0.15147168833900995
aF0.21485532997716997
aF0.2638437625360543
aF0.31587287999699815
aF0.39618678239451144
aF0.4879586234415926
aF0.630031272802723
aF0.7545766907000483
aF0.7791755007405973
aF1.0194071599060779
asS'A5_y0.80_y1.00_fit'
p495
(lp496
F0.0
asS'A1_y3.50_y4.00_val'
p497
(lp498
F0.007204676424085145
aF0.02447973101866927
aF0.0329187206574412
aF0.06888016776786451
aF0.0851691510443039
aF0.1160045422533567
aF0.13090421931010238
aF0.16770141385402104
aF0.2067976873669558
aF0.21407404312644185
aF0.21707802559199277
aF0.2652392107905547
aF0.28788672512224406
aF0.27791817226214416
aF0.29288365050416876
aF0.2565842239672835
aF0.2915154416480267
aF0.1894316406435572
aF0.2908834400712137
aF0.9057101268602751
asS'A3_y2.50_y3.00_val'
p499
(lp500
F0.014985257807632052
aF0.019093275356027232
aF0.037442038915050914
aF0.07047221011243086
aF0.0700103412325953
aF0.09808162081009227
aF0.11864993459945333
aF0.13350361618808274
aF0.15365429734253427
aF0.19241816690660488
aF0.20837814009860522
aF0.2462378767689386
aF0.23244464031502898
aF0.2217671147012423
aF0.304327245065528
aF0.37083968969209546
aF0.5405126737082266
aF0.7353696557774936
aF0.9202985173242241
aF1.0587334273208198
asS'A4_y4.50_y5.00_val_err'
p501
(lp502
F0.05035415313896185
aF0.03661888083616863
aF0.03986544995271269
aF0.04636866398084433
aF0.052727337485156206
aF0.06244744256281266
aF0.07105876793961521
aF0.08389775946914002
aF0.10316803654465323
aF0.1051149138146032
aF0.09457887713220066
aF0.14655393316627666
aF0.17913564831763615
aF0.25053131589632915
aF0.33629180974677086
aF0.3152470491099617
aF1.2928098927920624
aF4987730947.843433
aF0.0
aF0.0
asS'A2_y0.20_y0.40_val_err'
p503
(lp504
F0.019667635296410545
aF0.013524430544105978
aF0.013443072179835227
aF0.014339587073957155
aF0.01552665188309282
aF0.016773687174057007
aF0.01820836282095442
aF0.01975073204602576
aF0.021193335345528884
aF0.022906268827751368
aF0.018176561177013405
aF0.021221761460769456
aF0.025057988550091677
aF0.029875066244085563
aF0.03430774694020862
aF0.021869968120276025
aF0.03661877084767312
aF0.055310987350028214
aF0.06144712831018462
aF0.12060372966853432
asS'A5_y0.00_y0.20_val_err'
p505
(lp506
F0.009852095941981071
aF0.00680850099648879
aF0.006690375348515436
aF0.0071195952127979705
aF0.0077280374892785
aF0.00838350182592187
aF0.009024325192903714
aF0.00976580251013758
aF0.010501010428281993
aF0.011437186731279938
aF0.009008206044385814
aF0.01065949102837729
aF0.012511655842876225
aF0.01479024941972487
aF0.017159599067362877
aF0.010849633582927912
aF0.01831536183822727
aF0.026734393614182044
aF0.030217306734281198
aF0.06258287734436341
asS'A4_y0.40_y0.60_val'
p507
(lp508
F0.10769103584557745
aF0.10601120895998048
aF0.10670739499435433
aF0.0903163870224331
aF0.10251425026570928
aF0.11788146913596785
aF0.08455915474947219
aF0.103454432269898
aF0.0706216585489395
aF0.08649376493397348
aF0.09329358952205122
aF0.08486565209269176
aF0.08525500062609973
aF0.07560175926662953
aF0.07422728779504295
aF0.0738289975325277
aF0.039021157311190026
aF0.07241408969372871
aF0.03351360538992111
aF0.07919460646483377
asS'A2_y1.00_y1.20_val'
p509
(lp510
F0.016674853865458597
aF0.007396006755067193
aF0.014843082504220062
aF0.06563064351018454
aF0.030136565843083978
aF0.04551919957698477
aF0.07330211121718826
aF0.09468735456943987
aF0.0946691670234882
aF0.11310336892506492
aF0.16520599240096362
aF0.24378657400434567
aF0.25957419511225044
aF0.2804806373709007
aF0.4140784181443494
aF0.4357225133612295
aF0.5852925797292211
aF0.6447326419133184
aF0.8362260853689967
aF0.7886685710202224
asS'A2_y1.20_y1.40_fit'
p511
(lp512
F0.0
aF0.001539695756582915
aF0.00044095463552396713
aF-6.295721392176619e-06
asS'A6_y2.50_y3.00_val_err'
p513
(lp514
F0.007695134386393856
aF0.005325234976362462
aF0.005364951852071751
aF0.00581681584614249
aF0.0063156500277665
aF0.006863365792866661
aF0.007494193232149256
aF0.0080578972020936
aF0.008748698701323457
aF0.00946362871351439
aF0.007507489128216099
aF0.00884957361501242
aF0.010648348228224367
aF0.01273085634418931
aF0.014907004684797632
aF0.009742185119938011
aF0.016964091053441304
aF0.02675131829050454
aF0.03133459149954748
aF0.07601426252518032
asS'A2_y0.60_y0.80_val'
p515
(lp516
F-0.012136232220124648
aF-0.014711860506925608
aF0.019664527388288642
aF0.04851199449676084
aF0.04209467855352859
aF0.057989114611766555
aF0.0628874372192068
aF0.09350784454700896
aF0.10616181843695956
aF0.12452496231010053
aF0.12861478343231686
aF0.27059826994247366
aF0.2410405326670095
aF0.3320854141610352
aF0.3525072968811489
aF0.41381328002099327
aF0.5551320365753976
aF0.7223383420599938
aF0.7762265385474688
aF0.9068548638127083
asS'A6_y1.60_y1.80_val_err'
p517
(lp518
F0.011447309304434612
aF0.007815125171259193
aF0.007824271644563317
aF0.008367431391947643
aF0.009051187025457928
aF0.00976106534848533
aF0.010520236547684622
aF0.011372655286182271
aF0.012260626364881143
aF0.013092891647445265
aF0.010369122553726007
aF0.012112770728024488
aF0.014313565010988091
aF0.01681604827754032
aF0.01916194914571561
aF0.012305256941404939
aF0.020487461435609877
aF0.02923435089740786
aF0.033311287907350245
aF0.06648488839631396
asS'A6_y0.80_y1.00_fit'
p519
(lp520
F0.0
asS'A7_y0.80_y1.00_fit'
p521
(lp522
F0.0
asS'A6_y1.80_y2.00_fit'
p523
(lp524
F0.0
asS'A7_y0.80_y1.00_val'
p525
(lp526
F0.001431255412676934
aF0.00907081401314929
aF-0.012445651149924877
aF0.00588168241263173
aF-0.008708905400090257
aF-0.01545144452060221
aF-0.00787029438194347
aF0.0007004148679638852
aF-0.0020768518351299585
aF0.013349423561798794
aF0.00687867339537085
aF0.0005481950955647459
aF0.005837357482957138
aF-0.014641103691580093
aF0.008811339954474124
aF-0.007889257855879916
aF0.021452369587112278
aF0.007324584970875603
aF-0.030242323512546108
aF-0.02625551823507959
asS'A7_y1.60_y1.80_val_err'
p527
(lp528
F0.009353345923146197
aF0.00639633413371714
aF0.006404829827725565
aF0.006885303397851625
aF0.0074478873129683945
aF0.00805066844271867
aF0.008722548800931812
aF0.009416188675350908
aF0.01017385155860658
aF0.010916365682665479
aF0.008696796322785593
aF0.0102022353290335
aF0.012120107718182888
aF0.014276365953252825
aF0.01637737918238391
aF0.010615060695721193
aF0.017959939376086167
aF0.025970428846633656
aF0.03005994236877216
aF0.06087588005628751
asS'A3_y4.00_y4.50_val'
p529
(lp530
F0.026815383140497803
aF0.05851864910022875
aF0.10099173055273435
aF0.1325397956064049
aF0.1811520117667791
aF0.22149310226969665
aF0.2621297727123931
aF0.30842231059382574
aF0.3455292458016158
aF0.40657223846223933
aF0.46012298757471576
aF0.5373611247493841
aF0.6006049881477866
aF0.6703758898603238
aF0.7470886599805312
aF0.8455226342496851
aF1.2062863467789355
aF1.340906168391739
aF3.202062228067376
aF0.3045290273757934
asS'A7_y4.00_y4.50_fit'
p531
(lp532
F0.0
asS'A1_y2.00_y2.50_val_err'
p533
(lp534
F0.007416172791000208
aF0.005102380382468106
aF0.005122781402142027
aF0.0055315484154305926
aF0.006013465925171301
aF0.006552177804722228
aF0.007105381317391532
aF0.0076809568183417755
aF0.008381955306900373
aF0.009044514508867452
aF0.007208408764510248
aF0.00839679129842988
aF0.010043807159218765
aF0.01181840555811611
aF0.013710251909384378
aF0.008842311629097608
aF0.015068079403087227
aF0.023133450158237832
aF0.02607659931132109
aF0.055664119595987105
asS'A5_y2.00_y2.50_fit'
p535
(lp536
F0.0
asS'A1_y3.00_y3.50_val_err'
p537
(lp538
F0.008298684815858106
aF0.005796371938807992
aF0.005925157000882978
aF0.0064644644542226236
aF0.0071252022312375055
aF0.007763759260111831
aF0.008531906075440058
aF0.00936613096666568
aF0.01026066341648451
aF0.011143121721702488
aF0.009022125406945511
aF0.010851744761128237
aF0.013242519998974649
aF0.016038741359620058
aF0.018936404124825622
aF0.012728994798060117
aF0.023845866848074885
aF0.0404253045698735
aF0.05328089390379543
aF0.16080872291651763
asS'A6_y3.50_y4.00_val'
p539
(lp540
F0.008869014058595893
aF0.00815590567875323
aF0.01197007472747842
aF0.0065649143518947415
aF0.010342130201219307
aF-0.006216392868006872
aF0.009785370982084526
aF0.021173897494531455
aF-0.007197020359914091
aF-0.016749477394362507
aF0.003190171325305973
aF-0.01741495826616074
aF-0.016779156033597704
aF-0.0010447569015913768
aF-0.014350503694331529
aF0.0068747913531462205
aF-0.00478482755412709
aF0.012716703188984678
aF-0.009812641088048146
aF-0.008956953810431142
asS'A4_y3.00_y3.50_val'
p541
(lp542
F1.39604311917272
aF1.3739093420380175
aF1.3549996390164483
aF1.3426029546767793
aF1.3330585317957386
aF1.3141249252185883
aF1.2936141298130994
aF1.2792124106784837
aF1.2630127769349286
aF1.2529530932097799
aF1.2264519189092613
aF1.1933716595853159
aF1.1328112014431269
aF1.099275492227791
aF1.0460683673067503
aF0.9700220961186199
aF0.828201404998849
aF0.7308185621841821
aF0.6245468826928763
aF0.4750982739702175
asS'A7_y0.00_y0.20_val_err'
p543
(lp544
F0.00904414116353378
aF0.006228525433250434
aF0.006142740509263928
aF0.006524677585581123
aF0.007037451398454989
aF0.007630900570053844
aF0.008204435983297
aF0.008893473417544024
aF0.009530176712778945
aF0.010382166059012593
aF0.008102161755053352
aF0.009543967410845303
aF0.011149082026683722
aF0.01312980156682773
aF0.015152073955173425
aF0.00949707324797596
aF0.01578508369910842
aF0.022803768838133877
aF0.025457132221570672
aF0.052144065607322876
asS'A2_y1.40_y1.60_val_err'
p545
(lp546
F0.020151379712747823
aF0.01387158235935594
aF0.01383050207348032
aF0.014816865378158838
aF0.016219010954004257
aF0.01764302721408527
aF0.018943084747602205
aF0.020558645977110008
aF0.022236361280731986
aF0.02398246296625277
aF0.019233748601779718
aF0.022721425449415945
aF0.02695204292435042
aF0.03189660917957627
aF0.03770485500742006
aF0.023642116545022546
aF0.04009892327035861
aF0.06244552493606943
aF0.06968068403810011
aF0.14195596868209
asS'A7_y3.00_y3.50_val'
p547
(lp548
F0.017147366704148338
aF-0.0023867113292041736
aF0.0031017889412653624
aF-0.003261320502940664
aF-0.006612530236536005
aF-0.016637192096296587
aF-4.860691882898018e-05
aF0.005420860402500479
aF0.008621364432750044
aF-0.0018054215893235923
aF0.007578539268877712
aF-0.012839982027738615
aF-0.004950529721461397
aF-0.03499715414345345
aF-0.029805969895232688
aF-0.026878183969386075
aF-0.07585072988862607
aF-0.04911741612283932
aF-0.03343002209647826
aF0.09593215196485842
asS'A7_y0.00_y0.20_fit'
p549
(lp550
F0.0
asS'A6_y0.60_y0.80_val_err'
p551
(lp552
F0.0111275193724796
aF0.007632433507862113
aF0.007501108962560269
aF0.008047012457993863
aF0.00866667887368438
aF0.009321217626374483
aF0.010086751902299034
aF0.010778610432327905
aF0.011632272399742807
aF0.012498410020378367
aF0.009917447304861342
aF0.011426447134877586
aF0.013353767148144097
aF0.015596497425661295
aF0.018138296600415656
aF0.011160621622519342
aF0.018088863127453225
aF0.02677453064141528
aF0.029471974121709647
aF0.05919137092718154
asS'A0_y0.20_y0.40_val_err'
p553
(lp554
F0.01352596957929428
aF0.009285029777025177
aF0.009175231874095423
aF0.0097862954834808
aF0.010553520632157937
aF0.011322087885226309
aF0.012260339617234897
aF0.013148902328593351
aF0.014038857200654163
aF0.015045726453182381
aF0.011844405275651025
aF0.013668079727368136
aF0.015908981176114518
aF0.018754169876805754
aF0.021310899860691193
aF0.013469485085576093
aF0.0222311951231038
aF0.033446972048474896
aF0.036681096874561336
aF0.0713225027384473
asS'A6_y2.50_y3.00_val'
p555
(lp556
F0.0006865501886729283
aF-0.005666723866122558
aF-0.007312141666193515
aF0.0074173067345391225
aF-0.001899536628561029
aF0.002155025306769422
aF0.0033462974457617698
aF-0.0008416161663088584
aF-0.005790968456386033
aF-0.0021159305467178106
aF0.0008239070416704373
aF-0.005622893624947243
aF-0.002517331216474717
aF-0.005690395142071034
aF-0.03691012505467587
aF-0.017401912597010682
aF-0.004514244185107165
aF-0.031031828173606037
aF0.023895322016169788
aF-0.04364152823617942
asS'A3_y4.50_y5.00_fit'
p557
(lp558
F0.0
aF0.019501777038679502
asS'A0_y3.50_y4.00_val'
p559
(lp560
F0.0017299651874437838
aF0.0166941503295954
aF-0.0002442126694513163
aF0.025989446690880717
aF0.03727788290706524
aF0.03687522184426656
aF0.050305161553461195
aF0.10769807213149929
aF0.0619183113726367
aF0.11899087433911842
aF0.16699127007430312
aF0.23749733079802715
aF0.2993336444538969
aF0.38081721313815303
aF0.4401574992280722
aF0.48623946298606674
aF0.5653249836224706
aF0.7516029943326322
aF0.800921783297405
aF1.0168341562755532
asS'A7_y0.40_y0.60_val_err'
p561
(lp562
F0.00909773335430023
aF0.006208836375311949
aF0.0061627035329541715
aF0.0065934034033007585
aF0.007077348473382719
aF0.007677684583622414
aF0.008233381944301876
aF0.008902158284602026
aF0.009533658292714393
aF0.010411903345362244
aF0.008193941827127323
aF0.009556755924858586
aF0.011210707942937995
aF0.01312250203657397
aF0.015176150415172554
aF0.009568481407866885
aF0.01574832289263868
aF0.02344233080801804
aF0.025558275834050605
aF0.05396809079979022
asS'A4_y1.00_y1.20_val_err'
p563
(lp564
F0.011095922590072721
aF0.0075280363913336045
aF0.0074972246687574655
aF0.008013026108328158
aF0.008593651681181511
aF0.009252740842231235
aF0.009953049763128706
aF0.010631742950255915
aF0.011473727329858048
aF0.01235875434931188
aF0.0097037119149486
aF0.011096657186018148
aF0.013006231719356096
aF0.01511398377624948
aF0.017366772140803982
aF0.010720895691192353
aF0.017234104365866507
aF0.025762723832124527
aF0.027921534091939613
aF0.055177872633798614
asS'A6_y0.20_y0.40_val_err'
p565
(lp566
F0.011075189483659393
aF0.007596669984406986
aF0.007506322729175266
aF0.007987627375539954
aF0.008633854004886444
aF0.009254027433772188
aF0.010033092249456305
aF0.010805454420413198
aF0.011523827152753583
aF0.012362209277308297
aF0.009754059692687994
aF0.01123612171230595
aF0.013155136334389422
aF0.015454169988004553
aF0.017505238957234347
aF0.011019946499059342
aF0.01777849394499327
aF0.026364641898803713
aF0.02886891534062942
aF0.054708880948011095
asS'A4_y0.00_y0.20_val'
p567
(lp568
F0.03683575300601576
aF0.03647351370441496
aF0.012691095833142986
aF0.019512936638745898
aF0.025009265332789514
aF0.016746036331455758
aF0.017941959225023483
aF0.006611140664738513
aF0.040278311245919136
aF0.01682311543987079
aF0.014343831797158488
aF0.02719288721164099
aF0.022030468837382744
aF-0.006083451311176448
aF0.025552815125876777
aF0.020118771734522218
aF0.0033584166146243314
aF0.022327338465338055
aF0.023927708982609302
aF-0.054979465852998566
asS'A6_y1.20_y1.40_val_err'
p569
(lp570
F0.011241018670678433
aF0.007727348311117891
aF0.007693254923527227
aF0.008199957280135475
aF0.008857713673408835
aF0.009543309986754856
aF0.010226503340744493
aF0.011022207480368869
aF0.011924998823834276
aF0.012833830762860368
aF0.01010753779475888
aF0.011682447414766223
aF0.01372937706685517
aF0.016190689669335703
aF0.018469660259215512
aF0.011628528359861617
aF0.018828981708531645
aF0.02836292226883488
aF0.03080590077291038
aF0.06241748233743346
asS'A3_y0.20_y0.40_val'
p571
(lp572
F0.007060226307285591
aF-0.007394184183038134
aF-0.0249307301350566
aF-0.028768355861717526
aF-0.027919643007314823
aF-0.03660626241315246
aF-0.047738192218289344
aF-0.05894768325364024
aF-0.04104394771768078
aF-0.050638082305691
aF-0.058705497567832755
aF-0.0314200365941361
aF-0.04289029800083053
aF-0.03413408227213865
aF-0.028691250416868912
aF0.023121525694900207
aF0.08037064404953187
aF0.08257456400196693
aF0.09210745414192881
aF0.23141084245785742
asS'A7_y2.00_y2.50_fit'
p573
(lp574
F0.0
aF-0.0002720325779177607
asS'A6_y0.60_y0.80_fit'
p575
(lp576
F0.0
asS'A1_y1.00_y1.20_val_err'
p577
(lp578
F0.011258894455840867
aF0.007667021176192266
aF0.007646625395541538
aF0.008222164694070734
aF0.008855372956074102
aF0.009580608083174328
aF0.010363026771092005
aF0.011155042627757551
aF0.01207682315598028
aF0.013110560369090696
aF0.010353655298242871
aF0.011951227919916511
aF0.014183918740387162
aF0.0165893946793442
aF0.019117487809833078
aF0.011967711262335343
aF0.01967287668946969
aF0.029732081188342665
aF0.032935111165009655
aF0.06581616656842518
asS'A7_y0.60_y0.80_val'
p579
(lp580
F0.004348130538477331
aF-0.0012852317185224448
aF-0.0024010634460980757
aF0.0026127354756283663
aF0.0035740611210320914
aF0.0060586755181124136
aF-0.010991686768118049
aF-0.0014955111361583306
aF0.01999720165371653
aF0.015663480392106358
aF-0.003020491861385675
aF0.013381135580418473
aF0.0008179781021010842
aF-0.004308926697376213
aF0.00012081189331443481
aF-0.011252828441438087
aF-0.029712356884030424
aF-0.010321838335679352
aF-0.0046349287490632055
aF-0.06636728228853986
asS'A4_y0.00_y0.20_val_err'
p581
(lp582
F0.010834791854277591
aF0.00745290516092716
aF0.007331768796942533
aF0.007811573556179195
aF0.008355019387354489
aF0.00902841148689621
aF0.009682925457933806
aF0.010441404037320945
aF0.01114623768944229
aF0.01210659812130076
aF0.009399418428890095
aF0.010839733088703679
aF0.012603545245001473
aF0.014595086766889302
aF0.01672896898132782
aF0.010241976496815484
aF0.016621610907880724
aF0.023772853695067306
aF0.026097472226237893
aF0.05249240485972012
asS'A1_y4.50_y5.00_val_err'
p583
(lp584
F0.04227513454807809
aF0.03092574948401575
aF0.03381842211490048
aF0.03911522623960843
aF0.04596496776607533
aF0.053641894031932404
aF0.06342595096914444
aF0.07310647007549069
aF0.09046317130784959
aF0.09761556192555013
aF0.0876519417653776
aF0.14108489400596472
aF0.1775426896197681
aF0.2560115879235801
aF0.3146537887606703
aF0.3184703374389405
aF1.284693206859521
aF7507304350.618111
aF0.0
aF0.0
asS'A5_y1.20_y1.40_val_err'
p585
(lp586
F0.010023868822907943
aF0.006892840416202463
aF0.006863820252002924
aF0.007367328535317654
aF0.007962276200894429
aF0.008636172596727212
aF0.009353790821416082
aF0.010084522377324935
aF0.010924219699406388
aF0.011867283598719787
aF0.009420477429325882
aF0.010959580933104502
aF0.013060024373269318
aF0.015594237116749617
aF0.01776968041453714
aF0.01148865322731059
aF0.019299959325585134
aF0.029611711180459608
aF0.032989585487990684
aF0.06669063636090468
asS'A5_y2.50_y3.00_val'
p587
(lp588
F-0.0010447745947306868
aF0.004526348706893902
aF-0.0028379419754268167
aF-0.0009599153450722069
aF-0.0011474329300928006
aF-0.006300380512777206
aF0.007338778397719022
aF0.011468418166013478
aF-0.0019005513744052474
aF-0.003999361907191756
aF-0.01030447846155391
aF0.010038869173434363
aF0.01462781174408504
aF-0.0004525800448062655
aF-0.006114950254549016
aF-0.00336772595379478
aF0.006800252392602385
aF-0.02303648360286951
aF-0.0349573427736469
aF-0.0821474385214074
asS'A5_y1.00_y1.20_val_err'
p589
(lp590
F0.010043907309232438
aF0.006830061378487444
aF0.00684545817099755
aF0.007341097734282509
aF0.007905983294073377
aF0.0085506847523466
aF0.009261123984496474
aF0.009990416055940131
aF0.010892338538570584
aF0.011823379449861657
aF0.00935743858614398
aF0.010892887397943992
aF0.01300815311576535
aF0.01543533080461563
aF0.017869222464584625
aF0.011356672926008006
aF0.018837703074150777
aF0.029141339483339586
aF0.03235182319458632
aF0.06493954734497696
asS'A2_y0.20_y0.40_fit'
p591
(lp592
F0.0
aF0.004878368128173841
aF7.700392032390733e-05
asS'A0_y0.80_y1.00_val'
p593
(lp594
F0.004041242392759379
aF-0.009263944182174607
aF-0.003189630071746823
aF0.0024670326566845193
aF0.027149219131693172
aF0.04096625813286918
aF0.05513278675803052
aF0.07904951398388416
aF0.08463764597717643
aF0.12583663498442935
aF0.16597799410247047
aF0.2184533502546174
aF0.26560181468264793
aF0.3654502066709535
aF0.40940027566916004
aF0.47565780161354726
aF0.5917064607297297
aF0.8056469321594567
aF0.9353137692754829
aF0.9527694141776889
asS'A3_y2.50_y3.00_val_err'
p595
(lp596
F0.0062855864157540485
aF0.004360754414620781
aF0.004413576312507707
aF0.004812225217632005
aF0.0052450354122514885
aF0.00574830710563669
aF0.00626335414000717
aF0.006823294430209487
aF0.007464107876283449
aF0.00813452132246027
aF0.006517989019912437
aF0.007804705269016796
aF0.0094951448910031
aF0.01143789074426267
aF0.01355507238621568
aF0.009017724551735481
aF0.016428704391936083
aF0.027107984782036403
aF0.03312381779632295
aF0.08398852295799034
asS'A1_y4.50_y5.00_val'
p597
(lp598
F-0.030313834641376082
aF0.10682121652410886
aF-0.010044558101249844
aF0.0011520402900544165
aF0.09986703419889299
aF0.19809477179831972
aF0.1195895900281792
aF0.1449406208197271
aF0.2859565535402028
aF0.31767373437166907
aF0.3370715810551343
aF0.4994449983717923
aF0.8721376693867593
aF0.6075086410711654
aF-0.20474497675920267
aF0.14579851009662004
aF0.015557406256634848
aF105137.04204264966
aF0.0
aF0.0
asS'A6_y0.40_y0.60_fit'
p599
(lp600
F0.0
asS'A0_y3.00_y3.50_val_err'
p601
(lp602
F0.010088942981057109
aF0.007044387248759337
aF0.0071894767424552685
aF0.007819500436108462
aF0.008556015903023085
aF0.009329872892549846
aF0.010162199388328188
aF0.011136428412840226
aF0.012084920696173262
aF0.01309684265130405
aF0.010550827536153305
aF0.012574687417416118
aF0.015352417467921776
aF0.018685545422423365
aF0.022040218134236435
aF0.01478946639325112
aF0.02783750671154488
aF0.04766908131853911
aF0.06334521907146852
aF0.18967636441503588
asS'A5_y0.20_y0.40_val'
p603
(lp604
F0.002758689982882382
aF-0.0005143105253916371
aF0.0021471453686196674
aF0.028330605126946445
aF-0.0038662231500361777
aF-0.003074952054971867
aF-0.003787970579744647
aF0.02867731468690041
aF0.013055549145188484
aF-0.01449251765677212
aF0.006207000630958566
aF-0.01163295423763445
aF-0.0008350830090218961
aF0.011954698517219512
aF0.005250541520160522
aF-0.0008331905999330337
aF-0.014469705545682488
aF0.03955830955099479
aF-0.018082994665437443
aF0.1005397343356023
asS'A7_y1.00_y1.20_val'
p605
(lp606
F0.009351655766026827
aF0.004654750562695904
aF-0.001503150101290569
aF-0.0037761010778518457
aF0.0003696185442944533
aF0.011834830757592556
aF-0.01495698570791899
aF-0.012215361114694127
aF-0.006578128871299249
aF-0.008113131573161871
aF0.0001893905196925487
aF-0.0050140555652411
aF-0.00957048789494591
aF0.005830530160187741
aF-0.009324211322642675
aF-0.014433780575648088
aF-0.0372457916875564
aF0.0028416711533448026
aF-0.036819208398833896
aF-0.0193513850970425
asS'A3_y0.00_y0.20_fit'
p607
(lp608
F0.0
aF-0.004534495342383885
aF0.00010293652012358708
asS'A0_y0.40_y0.60_val'
p609
(lp610
F-0.02695284385382544
aF-0.006735020363258057
aF0.02094296123913553
aF0.008133701968347163
aF0.03420510963256538
aF0.03622917122965615
aF0.0335862450828517
aF0.08269707523507268
aF0.08707636594583767
aF0.09757454239188362
aF0.14437490750988036
aF0.20257236651355445
aF0.29882953128368855
aF0.2770653157235459
aF0.356222735881898
aF0.4893725516888428
aF0.6850171985599857
aF0.7803790544848414
aF0.8287412274764943
aF0.885089313796957
asS'A4_y1.00_y1.20_val'
p611
(lp612
F0.24570177787740233
aF0.24875839995777616
aF0.24105000350159114
aF0.23059107174967644
aF0.23469526171940003
aF0.22549518792674184
aF0.22351553284076797
aF0.22894058871983633
aF0.21844618339375327
aF0.20756668932233985
aF0.2009089958668713
aF0.21860487032637993
aF0.22481849692436764
aF0.17897529576236376
aF0.181149950531239
aF0.16171602884903147
aF0.13459052045776806
aF0.17349890936306814
aF0.14662977183461062
aF0.12076835594710907
asS'A4_y1.80_y2.00_fit'
p613
(lp614
F0.5545761589290908
aF-0.003164922255583305
asS'A1_y0.00_y0.20_val_err'
p615
(lp616
F0.01104807673062644
aF0.007619250248090868
aF0.007511141811261621
aF0.008002783748276879
aF0.008617153954907796
aF0.009322609675898296
aF0.010043461044068547
aF0.010891006857730163
aF0.011682325357793158
aF0.012697102687126234
aF0.009936565050003801
aF0.011637874849460876
aF0.013622866671931428
aF0.015932823325500264
aF0.0183715391469525
aF0.011428611999503414
aF0.018987284630233584
aF0.02751713388036666
aF0.03071856915343904
aF0.0628937220583357
asS'A5_y3.00_y3.50_fit'
p617
(lp618
F0.0
asS'A2_y3.00_y3.50_val_err'
p619
(lp620
F0.014772000891425238
aF0.01032608974036973
aF0.010584038799326163
aF0.011547337849457657
aF0.012699238500290968
aF0.013897045997932364
aF0.015316324018094008
aF0.016822779760084117
aF0.018462969844770694
aF0.02008693800895317
aF0.016361789410512192
aF0.019830617412211628
aF0.024415732403969242
aF0.029986047609602193
aF0.03551043863673174
aF0.02416061645505867
aF0.045885048365645095
aF0.07936554064903618
aF0.10560731317158088
aF0.3154842726083786
asS'A4_y3.50_y4.00_val'
p621
(lp622
F1.62246370782999
aF1.5986536173493693
aF1.5861191321963042
aF1.5637221656800335
aF1.5468094584425347
aF1.5468466108879653
aF1.5260526267089898
aF1.4880598293878913
aF1.4942363378531514
aF1.4611991962781734
aF1.4222515588990263
aF1.3937791248717784
aF1.3496764593395707
aF1.2692019890771113
aF1.2217902926086466
aF1.1312075588649417
aF0.994540313600478
aF0.778205956424325
aF0.9582309633322514
aF0.6503833868624797
asS'A1_y0.20_y0.40_val_err'
p623
(lp624
F0.011084115319589414
aF0.007601858282568984
aF0.007533816375882151
aF0.008037327872212612
aF0.008666044103084547
aF0.009376492906017534
aF0.010154878735316127
aF0.010959958163050901
aF0.011730407281889944
aF0.012586491471546637
aF0.009955397330563068
aF0.01154127705146935
aF0.013480318221310841
aF0.015895619197095853
aF0.018130764870763618
aF0.011459909870299092
aF0.0188243707445832
aF0.02824289913148311
aF0.03104733129700443
aF0.060274520221455435
asS'A5_y0.80_y1.00_val_err'
p625
(lp626
F0.010010331158909456
aF0.006810085595069112
aF0.006756760571052334
aF0.007237887999014053
aF0.007866507395314587
aF0.008489649878839059
aF0.009181385612902982
aF0.009944147971126685
aF0.010774845097301885
aF0.011751506708038035
aF0.009214282634913478
aF0.01074196101109929
aF0.012776308266007737
aF0.015103977783150889
aF0.01737009641494587
aF0.011130976654657222
aF0.018684567883346475
aF0.028465128236254914
aF0.031240157474108517
aF0.06724904946595066
asS'A2_y1.20_y1.40_val'
p627
(lp628
F0.015114783523639168
aF0.004577504807004875
aF0.026534349852962318
aF0.05834467325252874
aF0.029974188891142693
aF0.021283095484495414
aF0.08162309973923218
aF0.11087622675125261
aF0.13569920970917762
aF0.13038259582003936
aF0.2007467331302897
aF0.20632841391136716
aF0.2750572614347149
aF0.360557017660807
aF0.3018675988987526
aF0.39408013861329716
aF0.6315155659074871
aF0.5593928016060902
aF0.7267380675914074
aF1.049441753505476
asS'A6_y4.50_y5.00_val'
p629
(lp630
F-0.013146625655383956
aF0.004882168228034021
aF-0.004988946518918386
aF-0.026193423831865313
aF-0.02760634374084297
aF-0.020779911277545363
aF-0.032289670359912204
aF-0.04896310521692459
aF-0.13010586780989952
aF0.006015739346063752
aF-0.043433328909884036
aF-0.16258546547901065
aF0.18864372807920152
aF-0.10758932092571583
aF-0.2016842179856812
aF0.0813037837475398
aF0.601694584391151
aF-26416.541227069458
aF0.0
aF0.0
asS'A1_y1.00_y1.20_val'
p631
(lp632
F-0.0043558608727545635
aF0.020355091916125344
aF0.045063478273425994
aF0.06859948421867612
aF0.08407326648294752
aF0.0917362911876806
aF0.11945343048545745
aF0.14659430074311566
aF0.13553102649915383
aF0.16942688899859928
aF0.17070364984618616
aF0.16974868488370576
aF0.1562035728808707
aF0.14911802867421378
aF0.050962843427459534
aF0.0878225044517487
aF0.06512631913164083
aF0.04656083191700308
aF0.0821862637760781
aF-0.010138994517063227
asS'A5_y1.20_y1.40_fit'
p633
(lp634
F0.0
asS'A7_y0.00_y0.20_val'
p635
(lp636
F-0.012761114350298601
aF0.010880477998957652
aF-0.007921669614445629
aF-0.007089698841727562
aF-0.0037621545310114763
aF0.01532277212667221
aF0.0018343850052506756
aF0.01966536970244967
aF-0.00491514735655131
aF0.00866798791051839
aF0.011991556902777754
aF-0.01155444658803508
aF0.0044788309412257905
aF-0.013734620580120559
aF0.013440421234953752
aF-0.007741744266400235
aF-0.016774541655593146
aF-0.02090360310197277
aF-0.023163872400617968
aF0.0763922793458424
asS'A6_y1.00_y1.20_val'
p637
(lp638
F0.01204219707229071
aF0.002610004152417118
aF0.0186983442533633
aF0.010778123213323755
aF-0.013728636160643697
aF0.0010726537610927006
aF-0.009914319002029897
aF0.008150197607248501
aF-0.004397078203398671
aF0.0074028914300695026
aF0.013403231619910014
aF-0.007684512541555557
aF-0.013502649134162208
aF-0.002472530726658658
aF-0.010723490178179836
aF-0.0011384339906865676
aF0.021427438241413042
aF-0.03516927901508266
aF-0.033256443747222794
aF-0.04959930453048121
asS'A6_y2.50_y3.00_fit'
p639
(lp640
F0.0
asS'A7_y4.50_y5.00_val'
p641
(lp642
F-0.01827753701081771
aF-0.02331072284891471
aF0.04255858839516196
aF-0.001872829434258707
aF-0.03816443398746007
aF-0.03622252882545449
aF-0.008977123320778277
aF-0.009768055657992622
aF-0.05974068933541533
aF0.028554202999910912
aF-0.05778231812850816
aF-0.18673448993515715
aF0.12546539449283425
aF-0.10815670783697562
aF-0.23070431229273064
aF-0.19605445811164643
aF0.46258120407200937
aF76069.15665890972
aF0.0
aF0.0
asS'A2_y1.40_y1.60_fit'
p643
(lp644
F0.0
aF0.00564913816448151
aF5.7368488862781335e-05
asS'A7_y2.50_y3.00_val_err'
p645
(lp646
F0.006297498627661705
aF0.004360222305157878
aF0.004393159855262897
aF0.0047709556751087895
aF0.0051976037492335566
aF0.0056603094013893945
aF0.0061792675445589175
aF0.006676850469716803
aF0.007266533491074821
aF0.007861225233775068
aF0.006294039437910305
aF0.007437359602802237
aF0.008991379664100655
aF0.010826221004487898
aF0.012733235203774434
aF0.00839105995486041
aF0.014844840088170087
aF0.023730523736944474
aF0.028017050595647516
aF0.06905903557461482
asS'A6_y0.20_y0.40_val'
p647
(lp648
F0.011162673089179242
aF0.005887175849846979
aF0.0005388068605159029
aF0.004090469301234488
aF0.0037573400199588597
aF0.0024429173027383315
aF-0.015246477367052402
aF-0.0004566813705546426
aF-0.002666627508658756
aF-0.010462863140348208
aF0.0032565491791483533
aF0.014819713062579242
aF0.0032619465129480286
aF-0.007632744755012838
aF0.017524253608015006
aF0.003089970792517647
aF0.031619147902537476
aF0.039059283184292914
aF0.0001190672584408332
aF-0.07937045854960789
asS'A0_y2.00_y2.50_fit'
p649
(lp650
F0.0
aF-0.0034681742086282996
aF0.0007210708119423891
aF-9.258855804381949e-06
asS'A3_y1.80_y2.00_val_err'
p651
(lp652
F0.009426268021329886
aF0.006456857631123208
aF0.006512909291780009
aF0.0070338023390335465
aF0.007577420482884193
aF0.008267371722697382
aF0.00903529148016485
aF0.00974147285369546
aF0.010627283750556826
aF0.011510544716681536
aF0.009168245359232816
aF0.010861451870002434
aF0.012836527508258564
aF0.015360187849708664
aF0.018029316769559104
aF0.011554514493023721
aF0.019691904068724866
aF0.030842163396107892
aF0.03527814369790221
aF0.07665386401320862
asS'A7_y0.40_y0.60_val'
p653
(lp654
F-0.012663901992839401
aF-0.0035681908106263206
aF-0.0009729117841571397
aF0.009274570106576745
aF-0.0023056280824468676
aF-0.00715438978659524
aF0.003020083171227563
aF0.004924299480753239
aF0.0022499577263679644
aF-0.0038754055058135652
aF0.011403083880307087
aF-0.02171801909781186
aF-0.021683746007410687
aF-0.004904899064299451
aF-0.036497975818244814
aF-0.010198851118295141
aF-0.025658360620436745
aF-0.045563748684841136
aF0.042985456217437996
aF0.07290997668122783
asS'A6_y3.00_y3.50_val'
p655
(lp656
F0.00038363596299668685
aF-0.006340603671392385
aF0.0015686746831927462
aF-0.0010274960214908166
aF-0.0007154975773107582
aF-0.014002157436641427
aF0.004566695289460632
aF0.002439569016886826
aF0.007085089745044711
aF-0.0030724950013971517
aF0.007855695415730274
aF-0.02034105470268931
aF0.011043780575683853
aF-0.02028102819559108
aF0.0140944594285283
aF-0.021185366016104837
aF-0.01795322311955354
aF0.02264533385176593
aF-0.02372349760428638
aF-0.08300523699190045
asS'A5_y4.00_y4.50_fit'
p657
(lp658
F0.0
asS'A5_y4.50_y5.00_val'
p659
(lp660
F0.01486170472721913
aF0.033514381343588605
aF0.03442035272553181
aF-0.027126796910034164
aF-0.02695062175796196
aF-0.021795421300702517
aF0.004480232226778726
aF0.012737331516102984
aF-0.08795090490108717
aF0.041863667576971866
aF0.027314520100269014
aF0.15005924385995606
aF0.07622597624921834
aF-0.12039139734849065
aF-0.4441043812993362
aF-0.052478937599729325
aF1.7965119044345135
aF168635.8374167591
aF0.0
aF0.0
asS'A5_y0.20_y0.40_val_err'
p661
(lp662
F0.009884659780376238
aF0.006773965466477591
aF0.006714032667150297
aF0.007157252959731985
aF0.007763235663437018
aF0.008380316080706118
aF0.009127929921553698
aF0.009817333960871668
aF0.010540547757665357
aF0.011397105516638296
aF0.009018150558935062
aF0.010540479324628779
aF0.012437472035237438
aF0.014786642974090061
aF0.01692179286716906
aF0.010875922756500275
aF0.01811725258264062
aF0.027577038330377834
aF0.03057481845546012
aF0.05970798358662488
asS'A0_y0.00_y0.20_val_err'
p663
(lp664
F0.01353171747988959
aF0.009316961136543187
aF0.009166757192369682
aF0.009766869567118641
aF0.010483955062596816
aF0.01131037796505428
aF0.01212618500407264
aF0.01309139100533857
aF0.01399450498167755
aF0.015207457635589217
aF0.011871087148083114
aF0.013763159625662802
aF0.016054626622282013
aF0.018713616331065195
aF0.021612665323337228
aF0.013429580493577106
aF0.022374055134793763
aF0.03243462909336942
aF0.03649616356768066
aF0.0741330275783259
asS'A0_y2.50_y3.00_fit'
p665
(lp666
F0.0
aF-0.002152742250893569
aF0.0006714506528464892
aF-8.837231717568619e-06
asS'A0_y2.00_y2.50_val_err'
p667
(lp668
F0.009075022055604358
aF0.006233969558077318
aF0.00624396267521952
aF0.006711170465305814
aF0.007266494339103298
aF0.007875633252833426
aF0.008478726128692342
aF0.009127955045115571
aF0.009896245771992876
aF0.010643259324046044
aF0.00844312525423271
aF0.009795089432193396
aF0.011669270961330651
aF0.013809737285717211
aF0.015978639827406743
aF0.010333055998334034
aF0.017696017799098764
aF0.027329272057734375
aF0.030946190701821797
aF0.06544039335438281
asS'A2_y2.50_y3.00_fit'
p669
(lp670
F0.0
aF0.0016266886986928963
aF0.0004754722946053568
aF-6.942857832154475e-06
asS'A4_y3.00_y3.50_val_err'
p671
(lp672
F0.009199938746792896
aF0.006402598271328966
aF0.0065071762479420705
aF0.007073439001266835
aF0.0077355658538308045
aF0.00839504839317791
aF0.009120028662849533
aF0.009955572002318419
aF0.01079011010075809
aF0.01166184692471503
aF0.009340437865592991
aF0.011054854247601295
aF0.013287880814941472
aF0.015952483729494957
aF0.018588327891309
aF0.012234524566513472
aF0.022130596058503076
aF0.03647330216747295
aF0.04683466885768486
aF0.14002051064387414
asS'A1_y2.50_y3.00_val'
p673
(lp674
F0.017792379214471937
aF0.02821276142274939
aF0.041511238869664804
aF0.07858813062617395
aF0.08494255847124045
aF0.1190409617166866
aF0.1405453815651907
aF0.14493401360653307
aF0.1579880020414529
aF0.20709416931202076
aF0.20377283546092437
aF0.22844550758636242
aF0.2195767302162478
aF0.17445130012441226
aF0.1560631941593726
aF0.17427672877204148
aF0.15937249055355135
aF0.20533338040598456
aF0.1484609358484887
aF0.26249203905567786
asS'A0_y2.50_y3.00_val_err'
p675
(lp676
F0.00937853017249749
aF0.00648809807995224
aF0.006543887332550206
aF0.007095599413261719
aF0.007710328852153406
aF0.008335568823407217
aF0.009068403936745531
aF0.009803863224888095
aF0.010618051256629983
aF0.01143421481381353
aF0.009090236581800465
aF0.01068666254727221
aF0.012854344307220976
aF0.015390169735291248
aF0.0180762818306346
aF0.011861243821208076
aF0.02099802673898004
aF0.03361818228597874
aF0.0399303127216115
aF0.0998118726543422
asS'A4_y0.80_y1.00_val'
p677
(lp678
F0.2090117661503364
aF0.20889567514654397
aF0.19387836509124065
aF0.19327551653901173
aF0.17427561649103884
aF0.19505857209241276
aF0.19252149380176217
aF0.1797274556561896
aF0.15377697783644337
aF0.17703941626914083
aF0.1767454053711364
aF0.17524959121370198
aF0.1724524634551359
aF0.14599432915466862
aF0.12907622794361776
aF0.1245856019386627
aF0.1258505508427359
aF0.07803912711225974
aF0.07480311269779785
aF0.08922504337394377
asS'A0_y0.00_y0.20_val'
p679
(lp680
F0.003863300582160832
aF-0.006104485917751601
aF-0.000652731993890549
aF-0.009865879159555509
aF0.019857788272095996
aF0.03571223114856568
aF0.04689220112352406
aF0.06363355408044566
aF0.08328986898086063
aF0.10604403316751955
aF0.13574142411708404
aF0.23665133225840046
aF0.23343392513191366
aF0.2930176612194032
aF0.33915247093638734
aF0.4683429052189644
aF0.6581380043641505
aF0.7264531149348747
aF0.8500372572981635
aF0.8427291470212867
asS'A4_y4.50_y5.00_val'
p681
(lp682
F1.8168029907129861
aF1.8246507187872014
aF1.8175071193924288
aF1.8196833197590068
aF1.737465984550006
aF1.7753990678441327
aF1.6672857472426459
aF1.6462903972617837
aF1.7006686132047861
aF1.5428452607714835
aF1.502975068647842
aF1.362003675443877
aF1.5092253804691915
aF1.0717322026541194
aF1.5109992837476203
aF1.086894969302673
aF0.9420806318664228
aF-69851.34128241031
aF0.0
aF0.0
asS'A5_y1.00_y1.20_fit'
p683
(lp684
F0.0
asS'A5_y0.00_y0.20_val'
p685
(lp686
F-0.00754792111402021
aF-0.002557456537992004
aF-0.011919530382885594
aF0.005570312503267825
aF0.0004107657185876801
aF-0.0035181387374042788
aF0.0006297813678028426
aF-0.009327097906647427
aF-0.008951317481015263
aF-0.0038061097841711735
aF-0.003619861312092357
aF-0.01086104935313292
aF0.008117048182176734
aF-0.008613171991991924
aF0.01887241294336305
aF0.016664472377249072
aF0.008971898535409611
aF0.04515117962725424
aF0.01670757139363569
aF0.016343347343272085
asS'A4_y0.20_y0.40_val'
p687
(lp688
F0.0727213791486768
aF0.07222422208879233
aF0.06074246117866563
aF0.05691316468194113
aF0.0494326219162253
aF0.0475960679556467
aF0.05176938767364252
aF0.0657449192358075
aF0.04213727568470997
aF0.03184228541592971
aF0.047664684767123454
aF0.053712932681854245
aF0.034801971892025996
aF0.03660955940972663
aF-0.0037273537353386026
aF0.04527789115059683
aF0.017259773796956042
aF0.04232300668116067
aF0.026628824741829243
aF0.20286819557959784
asS'A7_y2.00_y2.50_val'
p689
(lp690
F0.0033908854168892607
aF-0.007856041426757021
aF-0.0002594101239849477
aF0.0008245998529992144
aF0.0012136729585478774
aF0.0006875449286805012
aF-0.013786461579659728
aF0.0007377807540105835
aF0.0016938812846520653
aF-0.012883020768070989
aF0.002047686362519139
aF-0.0025886651155829212
aF0.00461735656183063
aF-0.007563748671924803
aF-0.011620726946598974
aF-0.028670924701628783
aF-0.03426466350603962
aF-0.056213424379729975
aF-0.04698528280696403
aF-0.012453614956758074
asS'A7_y1.20_y1.40_fit'
p691
(lp692
F0.0
asS'A7_y1.00_y1.20_fit'
p693
(lp694
F0.0
asS'A4_y0.20_y0.40_fit'
p695
(lp696
F0.06386542227220132
aF-0.000743183526169984
asS'A1_y0.40_y0.60_val'
p697
(lp698
F0.010255424304000189
aF0.004893391776082324
aF0.020271796461055862
aF0.030634889000815107
aF0.049394624511633844
aF0.06019655402377929
aF0.066631540662833
aF0.0744411205073229
aF0.06704971978309336
aF0.06583340424133739
aF0.08351139005373376
aF0.10867748234011447
aF0.06428991212104128
aF0.08356557772064233
aF0.04093313035018518
aF0.04669324931535865
aF0.018374648295582694
aF0.023669860910239062
aF-0.014375710046462804
aF-0.020668906192843357
asS'A1_y0.00_y0.20_val'
p699
(lp700
F0.007163106807639421
aF0.012995919862747703
aF0.009079283552317673
aF0.004262863519313377
aF0.007356826916052751
aF0.017318785971034294
aF0.03118653700618878
aF0.0038767488790984166
aF0.01928618170314476
aF0.016961637954844278
aF0.023007207109929564
aF0.024720276505744522
aF0.028487245172594447
aF0.060450617998412025
aF0.027671535236250964
aF0.026218935515006096
aF0.00848802064190583
aF0.03331673549058875
aF0.037895944171450376
aF-0.01157407144780353
asS'A5_y4.00_y4.50_val_err'
p701
(lp702
F0.013664790841844868
aF0.009827488460518131
aF0.01037512041458291
aF0.011799006410783882
aF0.013453686730728333
aF0.015218011139073279
aF0.017222553864393874
aF0.019610205827596292
aF0.021951218729293565
aF0.025065863591976222
aF0.02140101025005505
aF0.02784991883780428
aF0.03516552128620331
aF0.045792252241290854
aF0.05760242911477164
aF0.04271781211564437
aF0.1064194405763535
aF0.28454651216076493
aF0.6614304805432226
aF2.8197507239694493
asS'A3_y1.40_y1.60_val_err'
p703
(lp704
F0.009256432708822851
aF0.006365857258793388
aF0.006349646971680751
aF0.006818742966698757
aF0.007441482555496687
aF0.008097057078785785
aF0.008734394034109002
aF0.009451777445124146
aF0.010256578772372819
aF0.011076840257729642
aF0.008876639206979533
aF0.010444170088389364
aF0.012410478152435813
aF0.014685087835181502
aF0.01731374294917476
aF0.010922099319938526
aF0.018542620990379396
aF0.02909942259384485
aF0.03259485688813797
aF0.06701086009371125
asS'A2_y0.00_y0.20_val'
p705
(lp706
F0.016155554951057572
aF0.010501100696800991
aF-0.008035726095804966
aF0.029508183179446694
aF0.04263674601135009
aF0.02399305969829108
aF0.048257485667022634
aF0.05477019509938744
aF0.10748386006702872
aF0.09754823313504166
aF0.1681773244459395
aF0.17456686332150126
aF0.21676487948753012
aF0.3064640461136148
aF0.31982903177784316
aF0.39188097393209675
aF0.5737872351485963
aF0.609719922557512
aF0.6740307458069654
aF0.8750322553962298
asS'fit_range'
p707
(lp708
F0.0
aF50.0
asS'A4_y1.20_y1.40_val_err'
p709
(lp710
F0.011139952941587407
aF0.007620373315297924
aF0.007591596214938702
aF0.0080841480769581
aF0.008690780239446454
aF0.009370256636286524
aF0.010036195452054673
aF0.010760407464265456
aF0.01162317201943539
aF0.012475713983289843
aF0.009783292357691573
aF0.01121265939233268
aF0.013106160991517103
aF0.015405103558595272
aF0.01737023147421681
aF0.010883694647324107
aF0.017530789971860902
aF0.026166851676375648
aF0.02852400609152666
aF0.05691559765790053
asS'A6_y0.80_y1.00_val'
p711
(lp712
F0.010667520440734116
aF-0.005585136546845588
aF-0.004098615055458794
aF0.011602146909502623
aF-0.008495320434996831
aF-0.015992578788909192
aF-0.013659746915755477
aF-0.0025325308495768866
aF0.006618180132250394
aF-0.01777605794218963
aF0.015903344497400614
aF-0.00623054274722164
aF-0.005347270802882304
aF0.014376250186546306
aF0.007221408091040293
aF7.951781633136552e-05
aF0.005125418660877074
aF0.035964399305200255
aF-0.05863774206692537
aF0.10666224612389308
asS'A3_y1.00_y1.20_val'
p713
(lp714
F0.008457696207911447
aF-0.00695449871760437
aF-0.020362461164214026
aF-0.016300132969137238
aF-0.024175749512339455
aF-0.01806937052359692
aF-0.008775651451004817
aF-0.01845313229230869
aF-0.020338418231741193
aF-0.02384404388873982
aF-0.015102999300064816
aF-0.015303785332392066
aF-0.0086522719499567
aF-0.026288086466319843
aF0.013771870164734233
aF0.05940975887738301
aF0.12234230889456245
aF0.15325828168684213
aF0.22055804956797537
aF0.388446241132432
asS'A2_y1.60_y1.80_fit'
p715
(lp716
F0.0
aF-0.0010493510091922065
aF0.0006157144630677212
aF-8.645343139020639e-06
asS'A0_y1.40_y1.60_fit'
p717
(lp718
F0.0
aF-0.0034165623328048234
aF0.0007075340747547659
aF-8.868190644172307e-06
asS'A2_y3.50_y4.00_val'
p719
(lp720
F-0.002322425717796721
aF0.013194660341779034
aF0.010749981482368907
aF0.05482429665951946
aF0.044017164034617556
aF0.06572402016433289
aF0.07680381203757534
aF0.10941264938689557
aF0.12104021584267417
aF0.1583867012585764
aF0.2214522623369493
aF0.20463791844658527
aF0.2993463347908886
aF0.40266279440884023
aF0.4591709440575486
aF0.37589684998921813
aF0.4372373771223996
aF0.6425156423267053
aF0.5766322843416303
aF2.43386682344377
asS'A0_y0.80_y1.00_val_err'
p721
(lp722
F0.013714731304584026
aF0.009367867111889774
aF0.009261230784896463
aF0.00984884514242283
aF0.010634347830062842
aF0.011430456194269523
aF0.012333461509325613
aF0.013301826971493335
aF0.014308847192198767
aF0.015412423715066261
aF0.012021476733140241
aF0.013906887372155691
aF0.016313390175006794
aF0.018989068406575334
aF0.02188763693733673
aF0.013754203195959436
aF0.022773704500762323
aF0.03441602016163867
aF0.03774101645755192
aF0.08037342533850315
asS'A3_y1.80_y2.00_fit'
p723
(lp724
F0.0
aF0.0016687583606794926
aF3.2196601326903596e-05
asS'A5_y3.50_y4.00_val'
p725
(lp726
F-0.002471822640783154
aF0.0017886638065508615
aF-0.0003406609262441525
aF-0.006187071030958997
aF0.010471924028203593
aF0.014020447669797254
aF0.019465881453698163
aF-0.012765584965203742
aF-0.02465809983302829
aF0.00588291649342243
aF0.01582974902642817
aF0.003558916686536275
aF0.018967375462214105
aF-0.030640201629160552
aF0.027633143615703952
aF0.021908359754531627
aF-0.011833399886151966
aF0.06278505732459853
aF0.048681508447714975
aF-0.020938859836982054
asS'A2_y0.60_y0.80_fit'
p727
(lp728
F0.0
aF0.0006801476453609789
aF0.00044871712653435543
aF-5.913056200123273e-06
asS'A4_y1.80_y2.00_val_err'
p729
(lp730
F0.011626829006476913
aF0.007899303810276578
aF0.007903331256417593
aF0.008475897532111245
aF0.009107632456136551
aF0.009853915728260202
aF0.010678774753366127
aF0.011406009253818555
aF0.012326903317064625
aF0.013251767817079117
aF0.010358041053938949
aF0.012056209489230111
aF0.013998730338267665
aF0.01639655997185539
aF0.019008356528879004
aF0.011873155399442439
aF0.019299642411833948
aF0.029242915107847864
aF0.03222750620154391
aF0.0669265583763444
asS'A0_y0.60_y0.80_val_err'
p731
(lp732
F0.013639633866726415
aF0.009328897318513411
aF0.009185052674707579
aF0.009855237414372013
aF0.010583081041525421
aF0.011383888142336143
aF0.01231653574761336
aF0.013127676757454318
aF0.014193399851984829
aF0.015223789723846788
aF0.012047147019501667
aF0.013876376322698279
aF0.016149266392773
aF0.018957171494180507
aF0.02201201308288377
aF0.013646074103284176
aF0.02247388861742779
aF0.03404123988713131
aF0.037540660597427604
aF0.07781919037702784
asS'A6_y4.00_y4.50_val'
p733
(lp734
F-0.007702400662695443
aF0.0005986530542729257
aF0.01691169416666573
aF-0.011730924359685329
aF-0.009232252535519275
aF-0.007342746617404644
aF0.005663531294099258
aF0.02156984107691905
aF-0.04394940868217503
aF0.004089438929880628
aF-0.0024235529863959916
aF0.0057826262134139
aF-0.0070515437466905735
aF0.01853648721882857
aF-0.07794921292682766
aF-0.0025545561315296512
aF0.08635495400441726
aF0.18568179466744375
aF0.8435214503316941
aF0.9757384968258012
asS'A6_y2.00_y2.50_val'
p735
(lp736
F-0.003318990776930759
aF-0.001588192759920881
aF0.0020195156763485166
aF0.0033841020342720404
aF0.0075692231231199855
aF0.004311162177034021
aF-0.0092993125067632
aF-0.0022981011546370036
aF-0.0015851311022395198
aF0.0031328025891572226
aF-0.0037214561051273896
aF-0.008921952936939596
aF-0.0023105232131206367
aF0.009676921174245803
aF-0.0006800936720061892
aF-0.0021139076551009045
aF-0.012707267526574344
aF-0.0024915664034954334
aF-0.0027465949078232985
aF-0.005058910241805793
asS'A0_y1.20_y1.40_val_err'
p737
(lp738
F0.013817754234625492
aF0.009452443491556719
aF0.009418229697069217
aF0.010032657373573789
aF0.010773804293841801
aF0.011670560307228425
aF0.012536423255819879
aF0.013396950771734965
aF0.014482667793069084
aF0.015591870595031958
aF0.012252404604459631
aF0.0141174488396755
aF0.016651273635475326
aF0.019668169220664534
aF0.022302847396286008
aF0.014208763853447983
aF0.023503792902995063
aF0.03581171541233908
aF0.03966086861869069
aF0.08019911243936158
asS'A4_y0.20_y0.40_val_err'
p739
(lp740
F0.010851905755983262
aF0.007444366471258858
aF0.0073482638654677615
aF0.00783191677598862
aF0.008432087230970754
aF0.009044778512962452
aF0.009779258425979296
aF0.010496314225727001
aF0.011180012401920465
aF0.0119330593060681
aF0.009389362915945026
aF0.010773283912784062
aF0.012473507972197156
aF0.014580702313717936
aF0.016477645381248376
aF0.010283736142672943
aF0.016510055200064124
aF0.024304130157565062
aF0.026486697778599674
aF0.05065372132335913
asS'A7_y4.50_y5.00_val_err'
p741
(lp742
F0.03456734249163089
aF0.02517941924223668
aF0.027604388997800062
aF0.031881296064901206
aF0.03743829930221343
aF0.04360310877573967
aF0.050850255772900525
aF0.05969356797392086
aF0.07366049782251445
aF0.0765660492681683
aF0.06921393797031411
aF0.11182581684846044
aF0.13600300451349392
aF0.20319093275210004
aF0.2544365092690984
aF0.2548362799715879
aF1.156221704694541
aF5431713692.343275
aF0.0
aF0.0
asS'A5_y4.00_y4.50_val'
p743
(lp744
F-0.01005020520078686
aF-0.021141268324741468
aF-0.002028459042338982
aF0.006525658369419447
aF0.004750343743490745
aF-0.022411767254427502
aF0.0034899785137563243
aF-0.007655850168296083
aF0.030131801334905634
aF0.03092887885491425
aF0.004721298794990665
aF-0.04226419066123408
aF0.020364456222160206
aF-0.018589350006473184
aF0.0879023109089688
aF0.018747973880515228
aF0.11933117563134052
aF0.18245985870730888
aF0.9956882667294634
aF-3.1903271306690204
asS'A3_y1.20_y1.40_val'
p745
(lp746
F7.569197470205597e-05
aF-0.01161165272320779
aF-0.011387621696107167
aF-0.0077684649548690095
aF-0.003550988048334636
aF-0.00167618839675115
aF-0.0047993385853372355
aF-0.0013624306176598631
aF-0.003229103095005188
aF0.009730656022867679
aF-0.009028489934962592
aF0.0002516819494020909
aF0.004130008068530274
aF0.014904232048881937
aF0.005486379661413825
aF0.07233468906586608
aF0.11347973136184078
aF0.18770597740163653
aF0.34078849963108165
aF0.4268196088300037
asS'A0_y0.40_y0.60_fit'
p747
(lp748
F0.0
aF-0.0014061159582292038
aF0.0004893638684359217
aF-5.314494474432886e-06
asS'A1_y1.80_y2.00_fit'
p749
(lp750
F0.0
aF0.012957844712563005
aF-0.0002097520489157882
asS'A0_y4.00_y4.50_val_err'
p751
(lp752
F0.018509174666470896
aF0.01334443000498232
aF0.014065330604869065
aF0.015964451205511015
aF0.01802857703206724
aF0.020391097051137425
aF0.022859932357929835
aF0.025937952818980096
aF0.02909827360987081
aF0.03298386939116392
aF0.028226475743276334
aF0.03600408443618177
aF0.04567690515033652
aF0.05821711283194641
aF0.07314998814359897
aF0.053419175542013295
aF0.12969849015345772
aF0.33970864626496317
aF0.8027194873529414
aF2.210190635515684
asS'A6_y0.80_y1.00_val_err'
p753
(lp754
F0.01121031366806384
aF0.007643305417473311
aF0.0075617629578354556
aF0.008051993621548405
aF0.008696178202216551
aF0.009400960074598837
aF0.010100848355685392
aF0.010895425372943829
aF0.011778941373737958
aF0.012711172989331382
aF0.009910129108621542
aF0.011490455031121248
aF0.01348807196900386
aF0.015647848478634232
aF0.01801641520347761
aF0.011273531850108254
aF0.018379586148017244
aF0.027275387993737726
aF0.029234837235131664
aF0.0625988878438998
asS'A4_y1.20_y1.40_fit'
p755
(lp756
F0.318409028445123
aF-0.002102747402495695
asS'A3_y2.50_y3.00_fit'
p757
(lp758
F0.0
aF-0.0004039486296756323
aF0.003987826053510533
aF-0.0006492656725960355
aF5.0045605111056964e-05
aF-1.918560952645522e-06
aF3.5106166036177224e-08
aF-2.434417390708376e-10
asS'A2_y4.50_y5.00_fit'
p759
(lp760
F0.0
aF0.013160063231086983
asS'A2_y1.80_y2.00_val'
p761
(lp762
F-0.041960448107091305
aF0.017647182010912827
aF0.021534687882130563
aF0.06265322691244568
aF0.05187954439516031
aF0.05369152031391851
aF0.07498460507092966
aF0.12088471601290356
aF0.16437425590695726
aF0.18343621184013825
aF0.21293388751594072
aF0.227214740634235
aF0.28657839411415814
aF0.32142687600419473
aF0.36007912574493256
aF0.4389427713103193
aF0.49521560895182004
aF0.6780008268843339
aF0.7023027625116574
aF0.7639835789711842
asS'A3_y4.50_y5.00_val'
p763
(lp764
F-0.006982560943720426
aF0.08780704834579654
aF0.07157334564618482
aF0.11885322184497228
aF0.1804403550826868
aF0.24097605529360575
aF0.2218854053748866
aF0.2935594123629927
aF0.36900718392444537
aF0.46649814845088955
aF0.5010737629948859
aF0.4297146327837225
aF0.6218250925420842
aF0.49661777667810897
aF0.22176506018867084
aF0.8426375358462779
aF-1.573396831136587
aF-113489.60512689823
aF0.0
aF0.0
asS'A3_y2.00_y2.50_val_err'
p765
(lp766
F0.00607375416646276
aF0.004176016208470042
aF0.0041927507845526575
aF0.004530720909377045
aF0.0049339994036737035
aF0.005397326619544238
aF0.005849799127118914
aF0.006356350239626351
aF0.006937535455758094
aF0.007515881553946436
aF0.006038420142683318
aF0.0071022666196680646
aF0.008571427538903642
aF0.010218503857245126
aF0.011921969829269314
aF0.007811357384518864
aF0.01368422082395163
aF0.02154264396484557
aF0.024976886653507977
aF0.05451111737842743
asS'A0_y4.00_y4.50_fit'
p767
(lp768
F0.0
aF0.004090345909603846
aF0.0001411584176420574
asS'A4_y0.80_y1.00_val_err'
p769
(lp770
F0.01100846535153025
aF0.00750629991315494
aF0.00743145351586343
aF0.007901972390137768
aF0.00851575783908
aF0.009172216861989074
aF0.009860483103684222
aF0.010622522472112199
aF0.011445611682460232
aF0.012287747453205138
aF0.00954467669222957
aF0.01100471336242276
aF0.012816956166946367
aF0.01475344285485565
aF0.01695890666724602
aF0.010514873673146912
aF0.017017517588087835
aF0.025063665531504804
aF0.026741420359915294
aF0.05687996386881798
as.