(dp0
S'A4_y1.20_y1.40_val'
p1
(lp2
F-0.3704002345850273
aF-0.36668569828680553
aF-0.3524931110850303
aF-0.3437824185381826
aF-0.34382367472679937
aF-0.3324921435655337
aF-0.3308898204456014
aF-0.3483918600728468
aF-0.3385091781135707
aF-0.3293467305052995
aF-0.324178353058541
aF-0.315861247740697
aF-0.30392227807174377
aF-0.2817264354979538
aF-0.31502785901418157
aF-0.27720630388117773
aF-0.2391666891242227
aF-0.20282167612352106
aF-0.15497035475796864
aF-0.20387907057214807
asS'A0_y1.20_y1.40_val'
p3
(lp4
F-0.025882759780967362
aF-0.024142268154631653
aF-0.005682180134939173
aF0.02575301971333111
aF0.03771480954797992
aF0.04503980184131371
aF0.05918541191632181
aF0.1081043331265632
aF0.11400538138990587
aF0.1638728796732375
aF0.18036215389134558
aF0.24076019025203413
aF0.3132707322399623
aF0.3832488956890614
aF0.3722422756753598
aF0.5150589602781391
aF0.6216386070754603
aF0.7863872360196723
aF0.8588305118745876
aF0.9922276394579309
asS'A4_y0.60_y0.80_val_err'
p5
(lp6
F0.010367692783799818
aF0.007087242629134987
aF0.006989345054874181
aF0.0074844370710547975
aF0.007985561746556152
aF0.008625440752632088
aF0.009268019308014961
aF0.009950913257503696
aF0.01070467799196097
aF0.01145681882513411
aF0.00895929723893722
aF0.010302688294587622
aF0.012054484578264272
aF0.014002541254060894
aF0.016010108387363626
aF0.009948026959850684
aF0.015754551313359785
aF0.023407636494197175
aF0.025278959116632495
aF0.04843544229208704
asS'A4_y4.50_y5.00_fit'
p7
(lp8
F-1.9981861260634688
aF-0.02707889369636482
aF0.002301682410854618
aF-2.7799364137676225e-05
asS'A4_y1.80_y2.00_val'
p9
(lp10
F-0.6488057519877504
aF-0.6341843129218079
aF-0.6215463301919867
aF-0.6161377056169491
aF-0.6058154392102476
aF-0.5927273806451485
aF-0.5919757813508559
aF-0.5848798485478643
aF-0.5933269824807502
aF-0.5928151023923893
aF-0.5855113746496383
aF-0.5583412686443331
aF-0.5427183407961602
aF-0.5406951765112101
aF-0.5152599980827963
aF-0.47222426510766924
aF-0.3992368759263547
aF-0.35693724263921933
aF-0.3116179028840893
aF-0.19135155544513263
asS'A5_y1.20_y1.40_val'
p11
(lp12
F0.001608579701779745
aF-0.0004535961379898825
aF0.017676173340754428
aF-0.005666174267786656
aF-0.014186688472916521
aF-0.004075029860770456
aF0.006126608432825606
aF-0.006856180927552369
aF0.007296753490999279
aF-0.004274014711508445
aF0.005119717075816901
aF-0.01098785145257493
aF-0.01007300943918865
aF-0.011271031822233551
aF0.02820682057084161
aF-0.01593769338330018
aF0.012808588229154254
aF-0.007249031902037911
aF-0.0027330655037522116
aF-0.03834189453801479
asS'A4_y1.40_y1.60_val_err'
p13
(lp14
F0.010455170996888688
aF0.007154756952100182
aF0.007106006821460246
aF0.007566870796263383
aF0.008146386558875401
aF0.00871562197520842
aF0.009442785627007316
aF0.010168508732279995
aF0.01094408461799165
aF0.011678397998348754
aF0.009118841615386597
aF0.010500067490786554
aF0.012265240042500647
aF0.014386224747380338
aF0.0165717505802587
aF0.010341634891576782
aF0.016704010840173745
aF0.023985810205724056
aF0.02602867070563998
aF0.04984544020944039
asS'A3_y4.00_y4.50_fit'
p15
(lp16
F0.0
aF-0.03968820580171234
aF-0.00011421235068343957
aF9.034943483073564e-06
asS'A0_y1.80_y2.00_val_err'
p17
(lp18
F0.01266453627031441
aF0.008742643615455093
aF0.008707659974460989
aF0.009350680982105914
aF0.01005486055705732
aF0.01089550696325011
aF0.011757199909069217
aF0.012693978063779823
aF0.013604207724103382
aF0.01462336520968849
aF0.011525156203922048
aF0.013378897477854501
aF0.015827074638876056
aF0.018693078160363044
aF0.021667028564048615
aF0.013638969535079277
aF0.022793774760161426
aF0.03460800830457158
aF0.03775538655401694
aF0.07443112912905839
asS'A2_y0.60_y0.80_val_err'
p19
(lp20
F0.018757428330782516
aF0.012855229574323978
aF0.012709017984476375
aF0.013704489038063353
aF0.014782240258664953
aF0.016039861733198713
aF0.01739882369806621
aF0.018816423622763843
aF0.020400916006118652
aF0.02196997136210936
aF0.017436212440260706
aF0.020597399281575078
aF0.024463186060783123
aF0.028784048199491184
aF0.0334757953656822
aF0.021249578091530476
aF0.03504458182171838
aF0.05352990767912565
aF0.05919467943914516
aF0.11598153781580235
asS'A2_y1.80_y2.00_fit'
p21
(lp22
F0.0
aF0.008520666019436768
aF0.00029974459713975367
aF-5.740579648846672e-06
asS'A5_y1.80_y2.00_val_err'
p23
(lp24
F0.009225018222741866
aF0.006376958501344224
aF0.006350690669289925
aF0.006857881117878433
aF0.00742191311173044
aF0.008103061399444831
aF0.008778744356643246
aF0.009544313587926047
aF0.010259935516298484
aF0.011149197473211567
aF0.008867354369488734
aF0.01039452527492531
aF0.012455469497554982
aF0.014793355223097398
aF0.017278703539002353
aF0.01104490910124281
aF0.018617562571480485
aF0.028645701625838536
aF0.031417072342104016
aF0.06195783927193647
asS'A3_y0.00_y0.20_val'
p25
(lp26
F-0.01091119662106872
aF-0.052308243057976794
aF-0.06198802387621483
aF-0.06510906551808827
aF-0.07707229379972179
aF-0.09207169651933575
aF-0.10447892008514321
aF-0.11951117713702387
aF-0.11001326751316484
aF-0.1092314945783333
aF-0.12918077168996772
aF-0.13778052752528794
aF-0.11646170302419687
aF-0.10859215356995788
aF-0.11307693909157499
aF-0.08847850406717479
aF-0.07701029549546014
aF-0.12582753928029355
aF-0.1717902947321604
aF-0.17804327646466345
asS'A5_y3.00_y3.50_val_err'
p27
(lp28
F0.005653381740593757
aF0.003943887528081549
aF0.004019675563098531
aF0.0043694861416947
aF0.004816181711373413
aF0.005262119188319185
aF0.005722130984021262
aF0.006256269998015135
aF0.006838738986158238
aF0.007405619545023214
aF0.005982308246164834
aF0.007187707142141021
aF0.0087697125006702
aF0.01055241657346892
aF0.0125607864160937
aF0.008504948114733686
aF0.015449035774279963
aF0.025774376563315382
aF0.0321359548212978
aF0.09455683414752804
asS'A2_y1.00_y1.20_val_err'
p29
(lp30
F0.018609502168355108
aF0.012842691865882527
aF0.012745432595546337
aF0.013693745923698169
aF0.014863628063611228
aF0.016113560938326
aF0.01754469626994067
aF0.018853506646222193
aF0.02055275553930996
aF0.02218986924492564
aF0.017669779299253317
aF0.020701400712037743
aF0.024695499435484325
aF0.029128775786361305
aF0.03371794315127318
aF0.021390837014547633
aF0.035654018860941536
aF0.0541825681935217
aF0.05904478877343169
aF0.12335993428195771
asS'A7_y3.50_y4.00_fit'
p31
(lp32
F0.0
aF0.0005317872256593442
asS'A1_y0.40_y0.60_val_err'
p33
(lp34
F0.010570273977744161
aF0.00721654414296835
aF0.00714351954123381
aF0.007674646491425362
aF0.008286591684586888
aF0.008955654724287417
aF0.009702577541822462
aF0.010435627367901358
aF0.011240601734131977
aF0.012145450406726807
aF0.009554041179619794
aF0.011134327418684097
aF0.01307388187311673
aF0.015144286529184103
aF0.017477909083481822
aF0.01109960486617904
aF0.01808928489929021
aF0.02672754322550334
aF0.02892192518340517
aF0.062158838229401964
asS'A7_y1.60_y1.80_val'
p35
(lp36
F0.007031074487622523
aF-0.0022672887347605633
aF0.011352505300830627
aF0.008282618124512926
aF0.006418597136432436
aF0.0032041797630592947
aF0.002319140493430895
aF-0.021355010743987
aF-0.009870362714958435
aF0.0008547896538129183
aF0.0010995684101030609
aF0.027032452793405257
aF0.018163337097154557
aF-0.0019060988558325974
aF0.006985175754026171
aF0.01410050325259291
aF0.027853358775670623
aF0.048969464370830385
aF-0.004158086813872626
aF0.027699771020872257
asS'A0_y4.50_y5.00_val'
p37
(lp38
F-0.05006303707892422
aF-0.06267352779404779
aF-0.06377026534104412
aF-0.10989889739834396
aF-0.1632013333150001
aF-0.102815868549805
aF-0.04339844608968457
aF0.007419751140245955
aF0.024392889293348367
aF0.03082432594221671
aF0.14180927114369557
aF0.5348107572430377
aF0.9030200791845892
aF1.0353694929410107
aF1.4427555700263244
aF0.8684473775862431
aF0.7373406726281057
aF3.475999033345075
aF0.0
aF0.0
asS'A5_y3.00_y3.50_val'
p39
(lp40
F-0.006209720368789773
aF-0.009534888104573591
aF0.0010022466902046248
aF0.0036659614586571744
aF-0.001372262386983996
aF0.006552920265878535
aF0.00027782099297719387
aF-0.008811580917774836
aF-0.004207611481406375
aF0.0007078722671956388
aF0.0033718202758150854
aF-0.0009357541654920514
aF-0.0012157439098888904
aF-0.015747779744092475
aF-0.030064053860758475
aF-0.006962914087518615
aF0.00842769828284503
aF-0.05213776264401218
aF0.033406846739996665
aF0.10839120700358085
asS'A7_y3.50_y4.00_val_err'
p41
(lp42
F0.005521151489876104
aF0.0038947018804745296
aF0.004004565251913288
aF0.004402637940141958
aF0.0048630606200926125
aF0.005341766043942155
aF0.005905590394405296
aF0.0064443154574296444
aF0.007106853666338649
aF0.007795358840421839
aF0.006370073318661322
aF0.007732989169754021
aF0.009609146733183138
aF0.011758015817102898
aF0.014289285120727626
aF0.009995574023309787
aF0.0203216637782372
aF0.03766940546193056
aF0.05952776699309111
aF0.25429041952255077
asS'A4_y4.00_y4.50_val_err'
p43
(lp44
F0.011198351954508507
aF0.008040578548542497
aF0.008490665389840597
aF0.009563024274874243
aF0.010711549646083778
aF0.011981432037740295
aF0.01349179178821982
aF0.015219251578507778
aF0.016760107482452963
aF0.018788053302808694
aF0.015442595527050507
aF0.01952062212396596
aF0.02431701373367782
aF0.030439787208151162
aF0.037133911481382904
aF0.027773340246728777
aF0.06427387202214993
aF0.14569516192670517
aF0.3394908507661518
aF1.0661391186224978
asS'A4_y3.50_y4.00_val_err'
p45
(lp46
F0.008072523816645543
aF0.005677830970177504
aF0.005832154177773957
aF0.006415942978947549
aF0.007035957489158613
aF0.007677438891800084
aF0.008462952530683335
aF0.009171677295299144
aF0.010080116284233429
aF0.010975172816145278
aF0.008859671434354418
aF0.010539376500372963
aF0.012772512416930826
aF0.015475493884289353
aF0.018314116117050507
aF0.01250787552338207
aF0.02419669282839256
aF0.04336228979189884
aF0.06574762179538121
aF0.25907216332534727
asS'A1_y1.20_y1.40_val'
p47
(lp48
F0.02666679265435124
aF0.03711714687844883
aF0.058534543749674615
aF0.07968322491264268
aF0.10955075650854043
aF0.12855060321109943
aF0.15894174871717107
aF0.1691000154789334
aF0.1802755881081603
aF0.17821008833855417
aF0.19723235931218427
aF0.19710444551521897
aF0.19885325195941564
aF0.1757983748045798
aF0.13851043140408023
aF0.1042907956564889
aF0.10537188887879417
aF0.03720246302100257
aF0.02346209195669977
aF0.16587184310217226
asS'A0_y0.20_y0.40_fit'
p49
(lp50
F0.0
aF-0.006382108173736523
aF0.0008476632816208484
aF-1.0653874920234766e-05
asS'A7_y2.50_y3.00_val'
p51
(lp52
F0.0035240282235705464
aF0.001389173742893325
aF-0.0035706663031308205
aF0.0003911718945070178
aF0.0006356338828909113
aF0.002316657028136383
aF-0.0004908463124241555
aF3.543103997324834e-05
aF0.0011160980508948218
aF0.00011604836807421713
aF0.009597887917557751
aF0.0001468375621048404
aF0.012931933309023657
aF0.017897559306401956
aF0.03565641452894549
aF0.03495226696862311
aF0.030230845775051064
aF0.030701069201287096
aF0.049318470948801624
aF-0.0530714228200668
asS'A7_y1.80_y2.00_val_err'
p53
(lp54
F0.008486325857165952
aF0.005847991061353535
aF0.005818270948940818
aF0.006252732626629473
aF0.006750555774837525
aF0.007340450520521251
aF0.007931307084266388
aF0.008637341091958788
aF0.009256393606235652
aF0.010039471752482107
aF0.00793026004541588
aF0.00926647810518067
aF0.01108442681359841
aF0.01308368492874409
aF0.015192732806974162
aF0.009647486298732239
aF0.01605655483478446
aF0.024297310752539145
aF0.026431437910732665
aF0.05132793545822924
asS'A0_y1.60_y1.80_val_err'
p55
(lp56
F0.012807398125773728
aF0.008746827414561464
aF0.008712253195180592
aF0.009351404947923865
aF0.010075804268335382
aF0.010900761855728127
aF0.011711588847037588
aF0.012612406664060823
aF0.013644318560470317
aF0.01462541021897916
aF0.011445015783018073
aF0.013406980097827042
aF0.015592393461425755
aF0.018415372235451734
aF0.02130426530497858
aF0.01352231709368579
aF0.02243535112526951
aF0.03354679499213715
aF0.03694151962814901
aF0.07268000246178377
asS'A4_y1.40_y1.60_val'
p57
(lp58
F-0.482239470388001
aF-0.4575160634717043
aF-0.4505445298069107
aF-0.43679531288105
aF-0.42142819819457933
aF-0.41190469781603983
aF-0.4235022892033573
aF-0.4064728897987582
aF-0.40155190399838925
aF-0.40318571703047174
aF-0.4113199824188672
aF-0.3762839785510287
aF-0.3750918655007054
aF-0.3911436662707479
aF-0.33236696747364225
aF-0.3318726050389468
aF-0.2916200335080233
aF-0.270412941093967
aF-0.2660298833570982
aF-0.12511963634721895
asS'A6_y3.50_y4.00_fit'
p59
(lp60
F0.0
asS'A0_y2.00_y2.50_val'
p61
(lp62
F-0.01502829420198544
aF-0.01656025182724227
aF-0.011950968440170536
aF0.009294401018764924
aF0.030370872332294126
aF0.045221407036276556
aF0.06747359536590262
aF0.09538578497565191
aF0.11282084064896532
aF0.14191715015582573
aF0.18842024663551768
aF0.2499383255458373
aF0.3020834259250617
aF0.37557188018963594
aF0.4166626408636592
aF0.49040716932565537
aF0.6322786543271981
aF0.7270499965488988
aF0.8457955695428299
aF0.8698257362201208
asS'A5_y2.50_y3.00_fit'
p63
(lp64
F0.0
asS'A7_y1.20_y1.40_val'
p65
(lp66
F-0.001080313748907015
aF0.005368506977749745
aF0.00584062779698388
aF0.010067693876408481
aF0.004181930897041655
aF-0.013704354314736449
aF0.015896421108476774
aF0.008568902203190683
aF-0.006889388371358242
aF0.011431295716658334
aF0.0024941028385095875
aF0.004271370189442423
aF0.009160886911552008
aF0.030423588783133098
aF0.024705104629273895
aF0.015467009851006222
aF0.020724192615089503
aF-0.008159248206947167
aF0.03037266708853189
aF-0.05377498736681051
asS'A0_y1.00_y1.20_fit'
p67
(lp68
F0.0
aF-0.0044392450131388594
aF0.0008257038658898187
aF-1.0869567090513187e-05
asS'A0_y1.60_y1.80_fit'
p69
(lp70
F0.0
aF-0.009106745786347376
aF0.0015190895758074516
aF-3.753613591131195e-05
aF2.9479103825258355e-07
asS'A4_y0.60_y0.80_fit'
p71
(lp72
F-0.17790036128934117
aF0.0012169728789338634
asS'A5_y2.50_y3.00_val_err'
p73
(lp74
F0.005703908666573279
aF0.0039522740199135105
aF0.003991678636077327
aF0.004318551506625273
aF0.004717991663160907
aF0.00515590984305543
aF0.0055951314194476725
aF0.006073054428425406
aF0.006601098514460353
aF0.0071453586862992805
aF0.00572925550899952
aF0.006788215842288729
aF0.008116179221720402
aF0.009887320374514407
aF0.011459650282299137
aF0.0075239675266034825
aF0.013003415161385744
aF0.01981295130018875
aF0.023528670308720155
aF0.05576396162198592
asS'A7_y2.00_y2.50_val_err'
p75
(lp76
F0.005333973512721436
aF0.003662852704163097
aF0.0036680064641211874
aF0.003962208706666404
aF0.004294597898644529
aF0.0046526248274661374
aF0.0050403305324479555
aF0.005470215510231566
aF0.005877026968962941
aF0.006355972125113823
aF0.00505717050425435
aF0.005939674113985797
aF0.007045672815764641
aF0.008341325319369111
aF0.009745884226211239
aF0.006260329030512309
aF0.010317373437288729
aF0.015496151383115886
aF0.017187737866362844
aF0.03502825392541082
asS'A4_y4.00_y4.50_fit'
p77
(lp78
F-1.9948085260035908
aF-0.00704049331585585
aF0.0008452444916921265
aF-9.960934927379268e-06
asS'A3_y3.50_y4.00_val'
p79
(lp80
F-0.047903774596595235
aF-0.1137626412557782
aF-0.1806357292968135
aF-0.24493840649915907
aF-0.31175811418739074
aF-0.36464613758191994
aF-0.417374840904431
aF-0.4868730891269072
aF-0.5238438473247253
aF-0.590775321482481
aF-0.653382828326148
aF-0.7184734862919463
aF-0.7811241850113596
aF-0.8098028393975638
aF-0.8458404584517756
aF-0.9231025646192635
aF-1.1569743174460767
aF-1.4024332747417108
aF-1.5529125749848964
aF-1.7357834928038587
asS'A3_y2.00_y2.50_fit'
p81
(lp82
F0.0
aF-0.02400684539543757
aF0.0005425111232961518
aF-4.249183144688494e-06
asS'A2_y1.80_y2.00_val_err'
p83
(lp84
F0.018511573881334845
aF0.012754032508061843
aF0.012736416811333723
aF0.013771225296816328
aF0.014905335334118908
aF0.016285386814787382
aF0.017623345665740264
aF0.019268765853240447
aF0.02084830298461985
aF0.022579063329845443
aF0.017956711062779337
aF0.021157439168047746
aF0.025339615857643674
aF0.030079840238698332
aF0.035039243201900494
aF0.022354079004437612
aF0.037658601917350876
aF0.0576654509481839
aF0.06325196166922567
aF0.12498020489509688
asS'A2_y0.80_y1.00_fit'
p85
(lp86
F0.0
aF0.00981155420846759
asS'A5_y1.40_y1.60_val_err'
p87
(lp88
F0.009326615088851407
aF0.0063792685787564885
aF0.0064012406808062194
aF0.006849832525396386
aF0.007406316789685089
aF0.008015991390978736
aF0.008741744671914884
aF0.009474535843267554
aF0.01019543398003445
aF0.011062592254854314
aF0.008755178429283837
aF0.010248238791575987
aF0.012161328346572903
aF0.014528011779434635
aF0.016943911776725003
aF0.01085069574622911
aF0.01820353869236832
aF0.026897011775189234
aF0.029796324031409503
aF0.05810178195947656
asS'A3_y2.00_y2.50_val'
p89
(lp90
F-0.03028677802384556
aF-0.06965068020328481
aF-0.1100694754859464
aF-0.1475559607383403
aF-0.17349281625140103
aF-0.19827338859278815
aF-0.2271435554121698
aF-0.25032833140786465
aF-0.26459916231256875
aF-0.2895580159997462
aF-0.31333120825076105
aF-0.3377468690428469
aF-0.35220037605678006
aF-0.36142315694631333
aF-0.34366577644084045
aF-0.3760283198931969
aF-0.4617797604244877
aF-0.6256638684076652
aF-0.7738690233309375
aF-1.061837795466327
asS'A1_y1.60_y1.80_val'
p91
(lp92
F0.017429983884499848
aF0.04854846062738854
aF0.08002812255130708
aF0.10064292564188107
aF0.1290776439487083
aF0.1673511820042703
aF0.17803024616903682
aF0.19184283849847597
aF0.20660531513755284
aF0.21237233412204873
aF0.21586129013067032
aF0.2277640024163039
aF0.19400130596586954
aF0.15175593864187478
aF0.1688374987418058
aF0.1233152494175089
aF0.10715252955082367
aF0.0037132306186291406
aF0.07389472327296558
aF0.04716162103219686
asS'A0_y0.40_y0.60_val_err'
p93
(lp94
F0.012954501885759383
aF0.008829953234222046
aF0.008700309302848914
aF0.009298033543909958
aF0.010003189530523161
aF0.010769823590088278
aF0.01161776463067173
aF0.012498986848195157
aF0.013369034320237201
aF0.014393737516028847
aF0.011333346048075002
aF0.013119690678913528
aF0.015426837887288596
aF0.01782882354281887
aF0.020622321144888735
aF0.01303486971485065
aF0.02128101526777245
aF0.03141709736028889
aF0.034260918410177595
aF0.07231861481029708
asS'A2_y4.00_y4.50_fit'
p95
(lp96
F0.0
aF0.003631001705755227
aF0.0013782936983943537
aF-2.4168445297180886e-05
asS'A6_y1.00_y1.20_fit'
p97
(lp98
F0.0
asS'A6_y0.00_y0.20_val_err'
p99
(lp100
F0.010548133698930257
aF0.007192844772457742
aF0.007129437848454523
aF0.00759908780534699
aF0.008174698136218716
aF0.008779972534441014
aF0.009484278463652842
aF0.010113349653639978
aF0.01098408606702652
aF0.011817417425613408
aF0.009277976466360752
aF0.010749372407364524
aF0.01255264583773483
aF0.014626210865273182
aF0.016874494994290508
aF0.010554668410664275
aF0.017179277414964625
aF0.024997805497358902
aF0.026133807452177762
aF0.052294552677538804
asS'A2_y3.50_y4.00_val_err'
p101
(lp102
F0.012037291342648741
aF0.008494609604493063
aF0.008781789417724412
aF0.00970094678332893
aF0.010743922200975673
aF0.011878632749173853
aF0.01315002713708994
aF0.014454383247675099
aF0.016006616420262996
aF0.017672907344607167
aF0.014503401252761002
aF0.017788136345886604
aF0.02220852143326024
aF0.027379942228075337
aF0.0332979530000134
aF0.023347103382293528
aF0.04809948052112676
aF0.08948422984543018
aF0.14288334154843743
aF0.6378073066285546
asS'A1_y0.00_y0.20_fit'
p103
(lp104
F0.0
aF0.0014270781291918222
aF-2.4921155165700832e-05
asS'A2_y4.00_y4.50_val'
p105
(lp106
F0.015503807362898248
aF0.019527871501538886
aF0.03658792415410224
aF0.10831455991310752
aF0.12013632983642965
aF0.16799532376547577
aF0.2464072236720588
aF0.24700474641431197
aF0.34515021624795905
aF0.41276259064685
aF0.5166657031968177
aF0.5541191275283948
aF0.6814577457234834
aF0.8108312872353916
aF0.8222045212768653
aF0.6008971966578274
aF0.690339202034567
aF1.1556497462711586
aF0.3658653151010956
aF-1.4759970998510596
asS'A7_y1.80_y2.00_val'
p107
(lp108
F0.0009349568916302745
aF-0.007738961847481701
aF0.0018564232921473695
aF0.0028570648779502844
aF0.00804324977470755
aF0.004739815298851336
aF-0.004760628662859382
aF0.007307500888423921
aF0.000821436096804646
aF-0.00010323561338393273
aF-0.0014277329473021815
aF0.014378331967581691
aF0.014098716350101768
aF0.009604632346258411
aF0.011057963414821605
aF0.023825738623493933
aF0.03228205421701857
aF0.017889832294977755
aF0.038082840244098644
aF-0.0004388255169694704
asS'A2_y2.00_y2.50_fit'
p109
(lp110
F0.0
aF0.007751773720274274
aF0.0003230174715251801
aF-5.873632008634164e-06
asS'A5_y4.50_y5.00_val_err'
p111
(lp112
F0.02029584270870918
aF0.01497611537038316
aF0.01672104079327032
aF0.019396597061455266
aF0.022635942815877223
aF0.026189881640513262
aF0.03142551809996746
aF0.036823959059266054
aF0.041141975409183136
aF0.04882531115498219
aF0.044521620486511176
aF0.05942538888167666
aF0.08540109064005251
aF0.11274217900636213
aF0.17073657533976985
aF0.17628359774940688
aF0.8702472481188984
aF8.57782729755904
aF0.0
aF0.0
asS'A0_y1.40_y1.60_val_err'
p113
(lp114
F0.012813553878612355
aF0.008783036123622467
aF0.008757873243264581
aF0.009321756216536544
aF0.01004604673815669
aF0.010787631403521559
aF0.01164022454055587
aF0.012614616423534628
aF0.01354443490527939
aF0.014505407763200006
aF0.011371076786350366
aF0.0132133110553403
aF0.015550049079741208
aF0.018302142728841862
aF0.021170408684073057
aF0.013425342836298376
aF0.02217218159679249
aF0.03275962813731582
aF0.03581635168270993
aF0.07013457253802077
asS'A6_y1.80_y2.00_val'
p115
(lp116
F0.003958091511276214
aF0.010480515090713054
aF-0.009323670865019208
aF-0.0037688785481863295
aF0.013641753115069488
aF0.0033133241276017307
aF0.012705598798997096
aF-0.011138219955751899
aF0.006126629587839258
aF-0.023553260247533746
aF0.0045047787320179195
aF-0.019702462041162938
aF0.01410719433601458
aF0.006023873427047622
aF-0.0015803909306081592
aF-0.0037083929780001162
aF0.014158006740345688
aF0.0098601202654347
aF-0.03155737623249589
aF0.001513615825916136
asS'A1_y0.80_y1.00_val_err'
p117
(lp118
F0.010540099600504947
aF0.00719739469744712
aF0.007191060709056762
aF0.007702719355415611
aF0.008329598167896501
aF0.008938068777751145
aF0.009670697472599646
aF0.010499299948060361
aF0.011315002874012277
aF0.012270792098563044
aF0.009712785224382578
aF0.01114819791586267
aF0.013196802586352412
aF0.015347561310441602
aF0.01790222348388966
aF0.011132404272091872
aF0.018411333292014536
aF0.026945865306089573
aF0.0293329935625246
aF0.05803811553786568
asS'A3_y1.40_y1.60_fit'
p119
(lp120
F0.0
aF-0.017671892043983922
aF0.0004501721447816454
aF-3.6146972923327978e-06
asS'A2_y1.20_y1.40_val_err'
p121
(lp122
F0.01872164189661893
aF0.012812268454850213
aF0.012769177862683298
aF0.013797388323217507
aF0.01487462533594007
aF0.01614468607746033
aF0.017551665231469064
aF0.019030158220589385
aF0.020630643129026682
aF0.022202598206945066
aF0.01777793059936619
aF0.020970160808333457
aF0.02482449670031873
aF0.029059329452813688
aF0.033833014156628885
aF0.02170795838726724
aF0.03575761087111872
aF0.05460189276427013
aF0.0588843655859714
aF0.1220841242917393
asS'A2_y2.50_y3.00_val_err'
p123
(lp124
F0.011364529488579654
aF0.007902009663899208
aF0.007992795288689276
aF0.008660421700854393
aF0.009466834567896081
aF0.01035404284854616
aF0.01125452776395845
aF0.012219448473306421
aF0.01332763748813367
aF0.01449852344481399
aF0.011604089014273369
aF0.013792873927062419
aF0.016503697604169372
aF0.02009080291804712
aF0.023276360105801003
aF0.015246051324572726
aF0.02626774978438734
aF0.0400051698302113
aF0.04765588592724041
aF0.11252073496445661
asS'A5_y3.50_y4.00_val_err'
p125
(lp126
F0.006007147816116507
aF0.004259257382784543
aF0.004382945570482702
aF0.004836999388603587
aF0.005339266327347964
aF0.005891252758512879
aF0.006511509849113913
aF0.007153760714730347
aF0.00790403184853942
aF0.008694085620177561
aF0.007136536152909139
aF0.008716919959075576
aF0.010852966555204653
aF0.013389476893164097
aF0.0162135169369444
aF0.01147628725538867
aF0.023700818168358617
aF0.04438215922588007
aF0.07089933193231845
aF0.30554884342362176
asS'A7_y4.50_y5.00_fit'
p127
(lp128
F0.0
asS'A0_y3.50_y4.00_val_err'
p129
(lp130
F0.00823516172430271
aF0.005804938524938103
aF0.005972667392819443
aF0.006577334521865312
aF0.007220292282232002
aF0.007894008026253766
aF0.008718473173013575
aF0.009483415702099983
aF0.010436494652219696
aF0.01143234293526015
aF0.009287365837038403
aF0.011206799620298155
aF0.013838505085987737
aF0.01694496624555766
aF0.020403969265610427
aF0.014257351468337336
aF0.029058507697175804
aF0.05373953525221697
aF0.08646037978189444
aF0.37791596412119005
asS'A3_y0.40_y0.60_fit'
p131
(lp132
F0.0
aF-0.015270207024538213
aF0.0008357285394407464
aF-2.3039213870307404e-05
aF2.336121328280731e-07
asS'A1_y0.60_y0.80_val'
p133
(lp134
F0.02198404038505972
aF0.013361962479821497
aF0.04785552979754798
aF0.05541121305322681
aF0.07796423958231788
aF0.09008531055287167
aF0.10136583746321992
aF0.10589397946009546
aF0.120745201834055
aF0.14182198165364246
aF0.13751880275592265
aF0.14409804936003504
aF0.11234109795620444
aF0.1363629821919751
aF0.07069659109079128
aF0.060772765272580555
aF0.03299518974561439
aF0.024053015084557587
aF0.012090348887359869
aF0.04681921849843779
asS'A4_y3.00_y3.50_fit'
p135
(lp136
F-1.4975072550870423
aF0.004205456052526216
aF7.640331190556177e-05
asS'A7_y0.20_y0.40_val'
p137
(lp138
F-0.0058526020997902335
aF0.005189098613622821
aF0.0011356547997724575
aF-0.008471347806383917
aF-0.005231754879648109
aF0.01059567460141481
aF-0.01007151944848594
aF-0.0014108585441673868
aF0.002328198127528641
aF-0.0111383137049562
aF0.016956928048990273
aF0.01653622007901006
aF-0.0037829844252291202
aF0.007243882373899968
aF0.013286734617452053
aF-0.008707559279321818
aF-0.004865899207465806
aF0.014571068905887056
aF-0.020879140583434423
aF0.011202315334520041
asS'A0_y1.40_y1.60_val'
p139
(lp140
F-0.009169152882161939
aF-0.017559076736465357
aF-0.0005088369268412915
aF0.010759828496675596
aF0.02372329496642173
aF0.04795310410280963
aF0.06277527957822666
aF0.10118204035844584
aF0.08765837986104898
aF0.1407722692964364
aF0.20029236845110832
aF0.2628266014317348
aF0.31814550953691645
aF0.36378878254306357
aF0.37548036938104284
aF0.48402489873429316
aF0.608897757574246
aF0.7386866570339443
aF0.7818809895916627
aF0.9147012517546618
asS'A7_y4.00_y4.50_val'
p141
(lp142
F0.007039927174712885
aF0.002456706431609686
aF-0.0013482921701632317
aF0.0002300422735063688
aF0.00807431317917855
aF-0.01671527384182925
aF0.0004229204777062417
aF0.022266322120878042
aF-0.0015462174049065143
aF-0.00990909993589265
aF0.014129524850685277
aF0.010766824028113697
aF0.04311373435265751
aF0.033775965525303646
aF0.08824614284004124
aF0.0168100327704457
aF0.027835792467320222
aF0.2968928249023772
aF-0.2629762038468182
aF1.5649214507969296
asS'A6_y4.50_y5.00_fit'
p143
(lp144
F0.0
asS'A7_y3.00_y3.50_fit'
p145
(lp146
F0.0
aF-0.00019358411204897785
aF2.122679546796716e-05
asS'A3_y1.00_y1.20_val_err'
p147
(lp148
F0.008570890719656048
aF0.005900007934924058
aF0.005863957122987839
aF0.006306149378407933
aF0.006851681057593764
aF0.007449950955487158
aF0.008098164201659526
aF0.008746587136548875
aF0.00954004311524636
aF0.010268098608026932
aF0.008180875688780105
aF0.0095681069511252
aF0.011365034155126073
aF0.013428146606791397
aF0.015552558680392674
aF0.009886690288598506
aF0.016588623085268383
aF0.025204212876603835
aF0.027502080508298103
aF0.05856698141776321
asS'A0_y1.80_y2.00_val'
p149
(lp150
F-0.042800930923059206
aF-0.013036230329533889
aF-0.022795998984108227
aF0.000997409321056611
aF0.016513966758023146
aF0.0538072419110546
aF0.06651786485691819
aF0.0774814077258969
aF0.1141616003463309
aF0.14274404735958138
aF0.1961883886479791
aF0.25451983084436064
aF0.296854147602658
aF0.34700576181403253
aF0.4073861983111079
aF0.4698355295429563
aF0.6449933028706049
aF0.7253996820114136
aF0.809572390040041
aF0.9273477969428934
asS'A5_y1.40_y1.60_val'
p151
(lp152
F-0.0007817450896865965
aF0.011351135236767798
aF0.002452669984007482
aF-0.0022795341068493637
aF-0.0005819668372088759
aF-0.0009701998051313088
aF-0.005514509382587727
aF0.005982888612640647
aF-0.0013438632779032714
aF-0.008528903166034095
aF-0.0016645783461986402
aF-0.012049876108959518
aF-0.0022071261649796677
aF0.0065729066103025055
aF0.003362744759928956
aF-0.023820383162672435
aF-0.0007290347222735549
aF0.01766301578665378
aF0.00524212533102095
aF0.03179947604550306
asS'A1_y2.00_y2.50_fit'
p153
(lp154
F0.0
aF0.015967248065810263
aF0.00016608307876447848
aF-2.3070953456453148e-05
aF2.9173535802440624e-07
asS'A0_y4.00_y4.50_val'
p155
(lp156
F-0.039234674431523855
aF-0.021780787367990707
aF-0.021789825779622123
aF-0.02407381822558462
aF-0.005791374839449314
aF0.013030575190950518
aF0.021163929490734836
aF0.07112115009674497
aF0.08399923925449194
aF0.14350510161944283
aF0.22245619849756834
aF0.2633749982121306
aF0.356218246161293
aF0.46162302755110934
aF0.4808216926827429
aF0.5042889960685969
aF0.5415740586233739
aF0.6161991637436913
aF0.49411727081676526
aF1.878154599493952
asS'A3_y0.20_y0.40_val_err'
p157
(lp158
F0.008627231846120985
aF0.005864879472293426
aF0.0058380897913233795
aF0.0062877255527790735
aF0.00677708547942339
aF0.007355631003583502
aF0.007966336683500566
aF0.008584251204330205
aF0.009325932357435023
aF0.010191743137990534
aF0.008042156478335704
aF0.009433287398581696
aF0.011128570734073941
aF0.013278066698910846
aF0.015251212359912659
aF0.009727600088347195
aF0.016224600100524088
aF0.024105737636013053
aF0.027153891496672126
aF0.05327019449514521
asS'A3_y3.00_y3.50_val'
p159
(lp160
F-0.036835847328431835
aF-0.09562277104108514
aF-0.15722115016418164
aF-0.2008486407328455
aF-0.25528779687403197
aF-0.2978514414870751
aF-0.34122909078419517
aF-0.3989895037193537
aF-0.4416711396852376
aF-0.4648117009645162
aF-0.5081487282226393
aF-0.5810234695236882
aF-0.6016374761687819
aF-0.6230812412803306
aF-0.6495272399024443
aF-0.7276289402197887
aF-0.9513069745564272
aF-1.1349657057885103
aF-1.3873159479581811
aF-1.6304659514749096
asS'A4_y0.40_y0.60_val_err'
p161
(lp162
F0.010373798965046786
aF0.007079442381733731
aF0.006975805093716921
aF0.007448368336391253
aF0.008010717692773532
aF0.008609691998972496
aF0.009288961281920841
aF0.009968848564452007
aF0.010658597956279313
aF0.011425092163697205
aF0.00896456028441274
aF0.010347838903480757
aF0.012051396044331903
aF0.013844812983068298
aF0.01591370969369831
aF0.009937250033213621
aF0.01584775565894912
aF0.022917543333751032
aF0.024571171179961045
aF0.05135926194237333
asS'A0_y2.50_y3.00_val'
p163
(lp164
F-0.030317126239474468
aF-0.017349697884297806
aF-0.009286508573198406
aF-0.004034517028765909
aF0.02888513598958724
aF0.039385679066471044
aF0.0653497037292762
aF0.0961487562207807
aF0.11816231182768629
aF0.1450040148576447
aF0.19175630895132625
aF0.27463046043222705
aF0.33036250861269945
aF0.36701089732426706
aF0.40147082379861426
aF0.49242146158405015
aF0.6235180171871051
aF0.6995890779430857
aF0.7803075675905177
aF0.8336090688200414
asS'A4_y1.60_y1.80_val_err'
p165
(lp166
F0.010494562565029819
aF0.0071664916224518675
aF0.0071225119236152
aF0.007631956051516492
aF0.00821104854671429
aF0.008873942052917706
aF0.009498287606240434
aF0.010241407312590075
aF0.011054762878982776
aF0.011850495780089253
aF0.00923642587008488
aF0.010714441893874925
aF0.012363000384114963
aF0.014508787988576464
aF0.01675885550968248
aF0.010452948603532658
aF0.016918550959003117
aF0.024666478168913906
aF0.026686285612473503
aF0.05111746666239488
asS'A4_y2.00_y2.50_val_err'
p167
(lp168
F0.006720107414590995
aF0.00461721403132422
aF0.004608693496321606
aF0.004960017042603343
aF0.005348751409610817
aF0.00577516325232997
aF0.006214709228002456
aF0.006702161392843475
aF0.007196718698484313
aF0.007708131644008242
aF0.006075500011524782
aF0.007032358004547987
aF0.008224221495919986
aF0.009640595344633124
aF0.011113113514486208
aF0.006984910055935291
aF0.011191689932411387
aF0.01646016406671448
aF0.017846134239066776
aF0.03581009815903906
asS'A6_y0.40_y0.60_val_err'
p169
(lp170
F0.010533177201984571
aF0.007183401943522446
aF0.0071002146534357435
aF0.007597941205744647
aF0.008162517385052952
aF0.008786214866359643
aF0.00951425981686209
aF0.010187381405162784
aF0.010929148239103412
aF0.011756639836436652
aF0.00930184653741789
aF0.010808273516462142
aF0.01267409645267702
aF0.014643406236283579
aF0.01689810269961915
aF0.010650238979477176
aF0.01710150665770894
aF0.024837534564619585
aF0.026828286496200074
aF0.05603855126086702
asS'A4_y0.60_y0.80_val'
p171
(lp172
F-0.18162117895007782
aF-0.1839944411979925
aF-0.17544642685164186
aF-0.16419487105351735
aF-0.1535675734744435
aF-0.1597986788494139
aF-0.1614246847050368
aF-0.15809403386374368
aF-0.1535308732737369
aF-0.15109833660509625
aF-0.1647686383834029
aF-0.14453331277811018
aF-0.13844114790275477
aF-0.1411377825739869
aF-0.10521712579025909
aF-0.12508576960489165
aF-0.11690597186771463
aF-0.07601741768638388
aF-0.06673567616982667
aF-0.0022625216129755327
asS'A3_y1.60_y1.80_fit'
p173
(lp174
F0.0
aF-0.018649908709486823
aF0.000418013524318658
aF-2.739079345397767e-06
asS'A1_y0.80_y1.00_val'
p175
(lp176
F0.006044568543130387
aF0.04816480457067547
aF0.044262183270966655
aF0.06808414969303948
aF0.08988515292843413
aF0.10325651224510195
aF0.11371914259931072
aF0.11704495967746303
aF0.14990277770749444
aF0.1419407785787799
aF0.15989150053910509
aF0.16778662737789773
aF0.15615637121228737
aF0.11355541314166614
aF0.08840526355524253
aF0.08336886263759573
aF0.02813964576073855
aF0.013140880568508092
aF0.023054506738304333
aF-0.021657729374766874
asS'A1_y1.20_y1.40_val_err'
p177
(lp178
F0.010517149666596622
aF0.00720388443716333
aF0.0071901106313457365
aF0.00774861080218758
aF0.008337124041027714
aF0.009016625089467553
aF0.009836114262613056
aF0.010525487319353013
aF0.011461428193291864
aF0.012226025873790555
aF0.00974258615127076
aF0.011383022156585971
aF0.013280184594616558
aF0.015400480319402133
aF0.017950247967718533
aF0.011385944117122855
aF0.01839453380662151
aF0.027646814469812014
aF0.02954417486654859
aF0.06095953171711659
asS'A0_y0.80_y1.00_fit'
p179
(lp180
F0.0
aF-0.0044551339311826865
aF0.0008180078611287351
aF-1.0734800920541025e-05
asS'A3_y1.00_y1.20_fit'
p181
(lp182
F0.0
aF-0.01465055251125466
aF0.00035355189193751746
aF-2.2874589384524406e-06
asS'A5_y1.40_y1.60_fit'
p183
(lp184
F0.0
asS'A5_y0.80_y1.00_val'
p185
(lp186
F0.0012142919894129866
aF-0.007321986213181523
aF0.00023762783102330718
aF0.007738017063114123
aF0.014775089894541871
aF-0.00958488469357982
aF0.01405577896706717
aF-0.015903088850276453
aF0.0032721143291120935
aF0.0012254152661601875
aF0.0032557003441337365
aF0.008250102404419419
aF-0.008791837056450884
aF-0.0010429132130990873
aF0.003640911615168994
aF-0.008608330970430242
aF-0.018253439458414965
aF-0.03513012792558586
aF0.021104762326514013
aF0.04899439921045755
asS'A2_y0.00_y0.20_fit'
p187
(lp188
F0.0
aF0.008832839764801356
asS'A5_y1.80_y2.00_val'
p189
(lp190
F0.0043333653789719906
aF0.0017154072006669418
aF0.013874769971216146
aF-0.004092242956215297
aF-0.01019600680578899
aF-0.00921615001661987
aF0.0006030139668863851
aF-0.005247935075304647
aF-0.016744626530101708
aF-0.014262465988509318
aF-0.004166153184594379
aF-0.021727473145328174
aF0.0037501862446838053
aF0.022386641243187608
aF-0.0011500960463747037
aF-0.0038723780754800303
aF-0.017833473738398338
aF-0.006024315767539007
aF0.01274919203046147
aF0.10606528383693868
asS'A7_y0.60_y0.80_fit'
p191
(lp192
F0.0
asS'A0_y1.60_y1.80_val'
p193
(lp194
F-0.03833438208377052
aF-0.019908761008742226
aF0.003623341984973654
aF-0.005114300114759182
aF0.013742244040784014
aF0.034133206406814394
aF0.07824760362936173
aF0.09235968474862301
aF0.11356992625844459
aF0.14461961014172545
aF0.1931980275375009
aF0.28634545445302
aF0.3320818397699407
aF0.3590609874636692
aF0.3841889584843573
aF0.49401118639872477
aF0.6178892465644759
aF0.7312957403837882
aF0.8407871829921494
aF0.9177766458949703
asS'A3_y1.20_y1.40_val_err'
p195
(lp196
F0.00860995843240936
aF0.00588656704656351
aF0.005886678196820958
aF0.006369340739541212
aF0.006858616643385778
aF0.00744501649388609
aF0.008122745283623199
aF0.008761217742529531
aF0.009549619352818952
aF0.010271615127390917
aF0.008213517315502407
aF0.009700414614534992
aF0.011443349807353375
aF0.013373857251161953
aF0.015656918422323685
aF0.010043438974532047
aF0.016593777559800724
aF0.025413607669096304
aF0.027585296754990683
aF0.05789878308911738
asS'A2_y0.00_y0.20_val_err'
p197
(lp198
F0.018751026941445023
aF0.01282317317744244
aF0.012756258989859562
aF0.013680755591280184
aF0.014780493298776553
aF0.015919354249527336
aF0.017294362173914037
aF0.018578285037781788
aF0.020280720466998466
aF0.02194826155032519
aF0.01736603231271359
aF0.020422511154040205
aF0.024178485338182912
aF0.02846622012313375
aF0.033002852636874525
aF0.0209422671401274
aF0.03532443998023312
aF0.05243593707894086
aF0.05598406579641335
aF0.11664594865249048
asS'A6_y0.00_y0.20_val'
p199
(lp200
F-0.0027865175065646453
aF0.009014881181195575
aF0.004458141429779595
aF-0.01432387645480643
aF0.0014921024486317476
aF-0.007379219944893449
aF-0.0063333517097500115
aF-0.012724695400876503
aF-0.015252660129073843
aF-0.019856842593821943
aF-0.00901012657948541
aF0.001320744878009086
aF0.0066128649527232046
aF0.03686499387229203
aF-0.03670550173917136
aF0.029391542117836053
aF-0.005475690222640254
aF0.002613088081743759
aF-0.042318946858971966
aF0.05841816184912809
asS'A2_y1.00_y1.20_fit'
p201
(lp202
F0.0
aF0.011655758525453253
aF-4.463430737910827e-05
asS'A3_y1.80_y2.00_val'
p203
(lp204
F-0.01886661400259628
aF-0.06783762347477398
aF-0.0997620444814384
aF-0.12541900013501772
aF-0.14655520863778432
aF-0.16852185279717105
aF-0.18875095553381482
aF-0.20260481754472293
aF-0.24410389876740893
aF-0.2668015428372233
aF-0.26183907590736205
aF-0.26372779198688
aF-0.28557246009555
aF-0.27969672791626327
aF-0.2677600660078866
aF-0.2652646090628324
aF-0.35554661022510703
aF-0.4321950236975867
aF-0.6414688736854877
aF-0.8274679340588144
asS'A2_y2.50_y3.00_val'
p205
(lp206
F-0.002697706044636119
aF0.013020378180991008
aF0.05344091728425119
aF0.07615328024546307
aF0.0980957767551635
aF0.11522565792156976
aF0.12128707854937466
aF0.16153827230860182
aF0.22831028312545776
aF0.22577855249787612
aF0.26595545116502445
aF0.3222479121627779
aF0.39116543071399695
aF0.44740517208813224
aF0.40725973362571766
aF0.4665639325483117
aF0.5601320767616509
aF0.5782623684333031
aF0.7638863395602628
aF0.7574663180136865
asS'A3_y4.50_y5.00_val_err'
p207
(lp208
F0.01869793129478846
aF0.013867139030363105
aF0.015543603175878119
aF0.01817640989584779
aF0.021638316042908848
aF0.025824393057852113
aF0.031338675018344066
aF0.03833469535097254
aF0.044044445100816544
aF0.05441219846502681
aF0.05151102747995126
aF0.07500049032981597
aF0.11903249245208819
aF0.15089949318857548
aF0.2270268535939333
aF0.21539358468211053
aF0.892692103633353
aF5.192422529613203
aF0.0
aF0.0
asS'A7_y1.60_y1.80_fit'
p209
(lp210
F0.0
aF0.0002527338936716417
asS'A5_y0.40_y0.60_val_err'
p211
(lp212
F0.009407062502109357
aF0.00641002363687586
aF0.006363059407095475
aF0.006833236160530765
aF0.007355420985424185
aF0.007981497351202113
aF0.008652901001815096
aF0.009320195642009045
aF0.01003145419422965
aF0.010877423997795335
aF0.008659633141942784
aF0.010139238072582935
aF0.012016154744813736
aF0.01406281579038986
aF0.016362434105838534
aF0.010510412423977595
aF0.017429154408155366
aF0.02603901571341255
aF0.028559973077567063
aF0.06113453002986146
asS'A7_y0.40_y0.60_fit'
p213
(lp214
F0.0
asS'A1_y1.40_y1.60_fit'
p215
(lp216
F0.0
aF0.01737363247363194
aF-0.00039509507897909045
aF1.557703670490053e-06
asS'A1_y3.00_y3.50_val'
p217
(lp218
F0.02952066186951403
aF0.07021385771955074
aF0.11230795619052938
aF0.13535449237930133
aF0.1799106851593582
aF0.2023135745225334
aF0.22746767915982527
aF0.2662499125051795
aF0.2811002249881915
aF0.28534063017465905
aF0.3099185089721984
aF0.32151375300996166
aF0.30271834583432683
aF0.29280165546803394
aF0.23770250977896687
aF0.23122054756773364
aF0.22119683506422402
aF0.27414367030855985
aF0.21407236135430124
aF0.41873193535387726
asS'A1_y4.50_y5.00_fit'
p219
(lp220
F0.0
aF0.014337771841898852
aF0.004598256251742679
aF-0.00017619379681006294
aF1.7301175900085921e-06
asS'A1_y1.60_y1.80_val_err'
p221
(lp222
F0.010459159913220379
aF0.007178433965931348
aF0.007169955081283841
aF0.007727070219832859
aF0.008364296763908714
aF0.009111338343185607
aF0.009790140386285763
aF0.010667563466787966
aF0.011561842053580889
aF0.012477103422582746
aF0.009821382920856745
aF0.011510075309192846
aF0.01336256881438181
aF0.015737070449699943
aF0.018244659076307304
aF0.011568788514077874
aF0.01908478739552223
aF0.0284718207833424
aF0.031226830918166776
aF0.06031266314513616
asS'A6_y2.00_y2.50_fit'
p223
(lp224
F0.0
asS'A3_y0.80_y1.00_fit'
p225
(lp226
F0.0
aF-0.01985671011097425
aF0.0016430705984943972
aF-8.913528134685148e-05
aF2.262307505129836e-06
aF-1.997390569775877e-08
asS'A4_y0.40_y0.60_fit'
p227
(lp228
F-0.12187314239040187
aF0.0007578045366823001
asS'A0_y0.60_y0.80_fit'
p229
(lp230
F0.0
aF-0.0024120389500192907
aF0.0006540844667378767
aF-8.342095151235899e-06
asS'A7_y2.50_y3.00_fit'
p231
(lp232
F0.0
aF-0.0001812005203134931
aF1.87902971251438e-05
asS'A4_y3.50_y4.00_fit'
p233
(lp234
F-1.813187676862034
aF0.006890061876152959
aF-0.00032816860845206325
aF2.1658142488439154e-05
aF-2.803237262387993e-07
asS'A3_y1.20_y1.40_fit'
p235
(lp236
F0.0
aF-0.02222447796514861
aF0.0016858468809405301
aF-8.618165716178114e-05
aF2.1221576410864628e-06
aF-1.845742988853498e-08
asS'A4_y2.00_y2.50_val'
p237
(lp238
F-0.839902937710434
aF-0.8434042856017954
aF-0.8160381405011178
aF-0.807180486590086
aF-0.7947698372285139
aF-0.7912572484333092
aF-0.7832948449597046
aF-0.7729153740780731
aF-0.7853714153165714
aF-0.7709953704254658
aF-0.7490731260833768
aF-0.7354490699202062
aF-0.7117960433020843
aF-0.704378320585754
aF-0.6687546819636386
aF-0.6191814867955356
aF-0.5242447922739769
aF-0.4711905928146498
aF-0.3781054624120848
aF-0.29734934822699993
asS'A6_y2.00_y2.50_val_err'
p239
(lp240
F0.0065265231737427825
aF0.0044817136148008994
aF0.004481443535796434
aF0.0048350642961732995
aF0.005224320092223176
aF0.005647449009488001
aF0.006099539687540916
aF0.006607646692753897
aF0.00707021068145752
aF0.007622476282436933
aF0.006048067070494473
aF0.0070480091674558374
aF0.008336230796553778
aF0.00981127171334051
aF0.011430074029120982
aF0.007251044501829573
aF0.01176636127141479
aF0.01744171106159569
aF0.019152728028699433
aF0.03887512079171942
asS'A2_y2.00_y2.50_val_err'
p241
(lp242
F0.011613280514346746
aF0.007993045275006404
aF0.008042245880514417
aF0.00870149849800042
aF0.0094634154535397
aF0.010324939462787102
aF0.011212729226470848
aF0.01217972608471509
aF0.013163822370668338
aF0.01432903030921399
aF0.011462816188342094
aF0.013562021144666741
aF0.016159677834319645
aF0.019228101100216805
aF0.02248587248259256
aF0.014492391747862047
aF0.024296547590348137
aF0.03682550409122091
aF0.0413137399215884
aF0.08508593124626884
asS'A2_y4.50_y5.00_val'
p243
(lp244
F0.017325364811515885
aF0.04154273222083714
aF0.10944765089788809
aF0.15558331941638465
aF0.23624794783611847
aF0.36734380812449746
aF0.45604114493488584
aF0.7543542699841282
aF0.848305841593599
aF1.0429787822660015
aF1.299557184825208
aF1.6746558551832322
aF2.543700696896377
aF2.387881115377137
aF2.5517805256353623
aF2.0433245008877616
aF1.7309725453116516
aF6.476557899182394
aF0.0
aF0.0
asS'A6_y1.20_y1.40_fit'
p245
(lp246
F0.0
asS'A1_y0.80_y1.00_fit'
p247
(lp248
F0.0
aF0.012810722977094818
aF-0.00031709989943584475
aF1.832556109835758e-06
asS'A4_y2.50_y3.00_val_err'
p249
(lp250
F0.006872808830785936
aF0.004746775357961322
aF0.004767477706891702
aF0.0051384509618199676
aF0.005557169586260821
aF0.006024591470191171
aF0.006488092002843408
aF0.006987287731481975
aF0.007538857484213914
aF0.008111165335772781
aF0.006391138497439069
aF0.007409943473125892
aF0.008700091577847251
aF0.010411972666792292
aF0.011919170319116072
aF0.007544033427667081
aF0.012353090092035878
aF0.018239018031277
aF0.020978259673279848
aF0.048236424326284874
asS'A2_y1.60_y1.80_val'
p251
(lp252
F0.025636331061143807
aF0.010488627592691948
aF0.040608368364615136
aF0.05837559762506449
aF0.11483990797731618
aF0.11481197332136459
aF0.12003716598929838
aF0.17197011339145393
aF0.20021186817614778
aF0.20366409148179926
aF0.2812271861281909
aF0.3351665435503184
aF0.40379460368956754
aF0.3832944405948024
aF0.41241426305369583
aF0.4288187045621892
aF0.5821384615020223
aF0.7174209561855747
aF0.7660776281898204
aF0.6335005608547862
asS'A1_y2.00_y2.50_val'
p253
(lp254
F0.018652705737735583
aF0.05161254417079714
aF0.07958319773451099
aF0.1119069864520113
aF0.14065397506930025
aF0.1646075405235588
aF0.20272407093773823
aF0.2094962194015448
aF0.23617637259359944
aF0.2485448627402985
aF0.2477727797968903
aF0.2544691420697538
aF0.23844053165007295
aF0.23384314550269203
aF0.1782636567291982
aF0.15320723203322892
aF0.112590817015115
aF0.1056331683482735
aF0.05740321217977524
aF0.07066479767076352
asS'A4_y4.00_y4.50_val'
p255
(lp256
F-2.0121779306077197
aF-2.0070730036992734
aF-2.004075117607579
aF-2.003720583724516
aF-1.9914440781456881
aF-1.983683346643614
aF-1.9769763906630866
aF-1.9462053601281073
aF-1.9243801103544933
aF-1.8963909779998742
aF-1.8455869247705794
aF-1.7960528249012009
aF-1.6988915102737923
aF-1.6181183987329582
aF-1.5897381575822724
aF-1.4850999955994117
aF-1.3158804589173887
aF-0.9506307983080171
aF-0.7164962452552731
aF1.5326972726857502
asS'A1_y2.50_y3.00_val_err'
p257
(lp258
F0.00639403521151693
aF0.004442222578820966
aF0.004492564177688481
aF0.004871229058103746
aF0.0053177618143724625
aF0.005803946388492462
aF0.006301660519395733
aF0.006819845971361123
aF0.007425913814464066
aF0.00802991575790139
aF0.006382322736930562
aF0.007491880307199363
aF0.008904230817446498
aF0.010719261181802477
aF0.012342514346957123
aF0.00797427806440339
aF0.013515614465077555
aF0.020406589683999547
aF0.0239990691791595
aF0.056268025452801046
asS'A5_y1.60_y1.80_fit'
p259
(lp260
F0.0
asS'A1_y4.00_y4.50_val_err'
p261
(lp262
F0.009056994310812874
aF0.006530393095546176
aF0.006924174883446228
aF0.007856348156566103
aF0.008873505608595912
aF0.010046403556367874
aF0.01141277170320381
aF0.012986423224326093
aF0.014493424361268149
aF0.01647003359822878
aF0.013751163873404977
aF0.017609845607903567
aF0.02247615246349453
aF0.028732359789450067
aF0.0351678974475124
aF0.02680046350707122
aF0.0648500412412882
aF0.15728398855287226
aF0.37889920168694147
aF1.2407777208412611
asS'A3_y3.50_y4.00_fit'
p263
(lp264
F0.0
aF-0.03791134857582519
aF0.00039361493960374553
asS'A2_y0.40_y0.60_val_err'
p265
(lp266
F0.018811095756773834
aF0.012819182235290561
aF0.01268600001309989
aF0.013671080467629798
aF0.014774467895044649
aF0.015988513312445433
aF0.017393229118170796
aF0.018722673733839255
aF0.020230390570049984
aF0.022051548778852185
aF0.01749819824110379
aF0.02052134206884548
aF0.02448286096026652
aF0.02850235255159424
aF0.03316175336279295
aF0.021278134962094384
aF0.03527078436378687
aF0.052653813269954164
aF0.057597259720302496
aF0.12347485791851595
asS'A3_y0.60_y0.80_fit'
p267
(lp268
F0.0
aF-0.013420667616735604
aF0.0003724426813010561
aF-2.9999883466727626e-06
asS'A3_y0.00_y0.20_val_err'
p269
(lp270
F0.008616514324032279
aF0.005890216805209176
aF0.005861625776133243
aF0.006307752249999473
aF0.006792412378964667
aF0.0073544503597843215
aF0.00797557930676063
aF0.008596318725068882
aF0.009356885181650624
aF0.010087546310875944
aF0.008013832337770914
aF0.009438092775193804
aF0.011125729544603554
aF0.013079002933511646
aF0.015191242247980541
aF0.009676224960073063
aF0.016352506470140287
aF0.024386790620178185
aF0.026115146398050078
aF0.05406481379396543
asS'A3_y0.80_y1.00_val_err'
p271
(lp272
F0.008598917472000145
aF0.005893392540950781
aF0.005896708913842677
aF0.006314568259992997
aF0.006854611065276479
aF0.007360949960106345
aF0.007987571051197679
aF0.00871563777649988
aF0.009443746445197628
aF0.010258059770546769
aF0.00818091401280607
aF0.009505877941226646
aF0.011361120754762255
aF0.013304148960197883
aF0.015623363804540498
aF0.009822257131367085
aF0.01656609840922684
aF0.02467855578320014
aF0.027199823940812575
aF0.05482254307911112
asS'A6_y1.40_y1.60_val'
p273
(lp274
F-0.0013097507964008926
aF-0.006843059565733981
aF0.008220120340413
aF-0.007868081492534311
aF-0.0006744082097542719
aF0.008157400359464034
aF-0.013192882110995566
aF0.0024674973942957748
aF-0.0069845793663882326
aF-0.006352507488164492
aF0.0024713986245245376
aF-0.01461819623245369
aF-0.004385279745589522
aF0.014174096963417272
aF7.138980873993384e-05
aF-0.007484990792085012
aF-0.018957947906292353
aF0.01590818683780182
aF0.023035735950865787
aF0.024242696507739102
asS'A5_y1.60_y1.80_val_err'
p275
(lp276
F0.009264340830374732
aF0.006378962510248981
aF0.006382918446184944
aF0.006863822498227188
aF0.007421067494771661
aF0.00808810228482645
aF0.00874391303898938
aF0.009509679260747103
aF0.010289999821387357
aF0.011120064687644439
aF0.008786227587303849
aF0.01041669126233591
aF0.012264211120680381
aF0.014585157172169808
aF0.016998773687354255
aF0.010924201145572925
aF0.01837154624576484
aF0.027644130522097164
aF0.030645666118364903
aF0.06099150778460074
asS'A1_y1.80_y2.00_val'
p277
(lp278
F0.013970918213163323
aF0.04972443638872749
aF0.08180220542426657
aF0.11774612538230177
aF0.14408192616631596
aF0.13976870097154515
aF0.1775455070449894
aF0.18868059850381935
aF0.1987864771061469
aF0.22963119560052628
aF0.23096289769869405
aF0.22400279304963577
aF0.21579186015621832
aF0.22180540882157232
aF0.1347391095155131
aF0.11547702997541413
aF0.107534411928557
aF0.06537022759626251
aF0.08115360260701455
aF-0.01074464834177806
asS'A5_y0.60_y0.80_val'
p279
(lp280
F-0.00905010690039528
aF0.007426929869288109
aF-0.0015781229473056382
aF0.003847049541683382
aF-0.003504461433172727
aF-0.0040291718305203285
aF-0.007952088345993605
aF-0.0005633370126185903
aF0.005479972148544717
aF0.0022780983386076173
aF-0.009186131463378438
aF0.00036871963112437535
aF-0.0092216576925046
aF-0.01081407438947307
aF0.021744272464045773
aF-0.00662566987562024
aF-0.008538813123208167
aF0.019981561256228797
aF0.005626842653221825
aF-0.031453099899066056
asS'A6_y3.00_y3.50_val_err'
p281
(lp282
F0.006346643205263088
aF0.004420581130404252
aF0.004493327003108735
aF0.004868044898113422
aF0.005320916185473318
aF0.005803985429250234
aF0.006273045361336259
aF0.006831589586301441
aF0.0074171352488097446
aF0.008018777171583839
aF0.0064092953130214046
aF0.007640797164236389
aF0.009188644552133942
aF0.01094808689821342
aF0.012903579603374647
aF0.008607719552823044
aF0.015188183706782155
aF0.024656754873309115
aF0.030192090247756546
aF0.08701479101695571
asS'A1_y0.20_y0.40_val'
p283
(lp284
F0.000886509395397403
aF0.025942100026083065
aF0.030824526471255366
aF0.03845157443077764
aF0.04203420861274793
aF0.03918233197360749
aF0.044969226925380516
aF0.04760133304805749
aF0.06869816264126093
aF0.05702979245310174
aF0.0638979521086762
aF0.07370569272950672
aF0.06514739517618781
aF0.03280172015646082
aF0.01760127720081745
aF0.03885622602608304
aF0.01508193167926164
aF-0.015943913306558543
aF-0.0069187986834416725
aF0.04321460025536739
asS'A2_y0.20_y0.40_val'
p285
(lp286
F0.013226027711704471
aF0.018461765174697664
aF0.02442218803268773
aF0.08268163433005776
aF0.07118813122847173
aF0.09673002788941969
aF0.17144519996932764
aF0.1388351682533061
aF0.15916611258136032
aF0.17523427725314908
aF0.2149683959121285
aF0.23280675244692425
aF0.3057729750479162
aF0.3628321421926202
aF0.37953589716517555
aF0.4340682629759691
aF0.5712303163477088
aF0.6356670056648742
aF0.7850730105567483
aF0.8975607724682523
asS'A1_y0.40_y0.60_fit'
p287
(lp288
F0.0
aF0.006737257536147179
aF-0.00011613953517246138
asS'A6_y4.50_y5.00_val_err'
p289
(lp290
F0.022836223176493486
aF0.016814861275665435
aF0.018786429964329592
aF0.02167849986823077
aF0.025462414876130907
aF0.029304491359460234
aF0.034661801812032274
aF0.0404147383320763
aF0.045184721074670045
aF0.053476407323202066
aF0.048200939946624215
aF0.06327565266945698
aF0.09010997198578678
aF0.11778236749088171
aF0.17278492762652445
aF0.18436732795436822
aF0.855394106067196
aF8.96025392684671
aF0.0
aF0.0
asS'A1_y4.00_y4.50_fit'
p291
(lp292
F0.0
aF0.03231081345277309
aF-0.00047053844852834245
asS'A6_y3.00_y3.50_fit'
p293
(lp294
F0.0
asS'A3_y1.60_y1.80_val_err'
p295
(lp296
F0.008540891070337859
aF0.00586168098082827
aF0.005876737210048505
aF0.00634594521313333
aF0.006880362914964269
aF0.00750030490977505
aF0.00812296236648034
aF0.008875861522759878
aF0.009642003493337638
aF0.010440508378820924
aF0.00828954761908171
aF0.009842824691086272
aF0.01155500878160886
aF0.013702003937773592
aF0.015949834349516898
aF0.010227874130504485
aF0.017255151478442338
aF0.026380742150181314
aF0.029413795831243532
aF0.05878814546982338
asS'A2_y3.00_y3.50_val'
p297
(lp298
F0.014778355741267795
aF0.03656551218422863
aF0.05013581587488531
aF0.0732248999016121
aF0.10169692406597662
aF0.13575426276111116
aF0.14168573037754506
aF0.17556043487541992
aF0.22703607803620834
aF0.22292007902688782
aF0.3132662646433322
aF0.35197643024444086
aF0.40508718660061027
aF0.4413957574990969
aF0.5205777757568314
aF0.4930384417928768
aF0.6225918051095745
aF0.5842320421171018
aF0.796803223788744
aF0.9415924347544493
asS'A5_y0.40_y0.60_val'
p299
(lp300
F0.0015355286927466964
aF-0.0047254686871460415
aF0.008456476856667469
aF-0.009906988264767682
aF-0.009696943138482194
aF-0.00016363767105731533
aF0.010649679891894106
aF0.006599586046129599
aF0.0043363406892468655
aF-0.012897142105019466
aF-0.00038720489308518625
aF0.004133426593773131
aF-0.003962369330801724
aF0.00012178596509324016
aF0.0011263965613776484
aF0.00762675238772009
aF-0.010215752863465193
aF-0.006303266823598411
aF-0.009962560993085687
aF0.13685186562599255
asS'A6_y4.00_y4.50_val_err'
p301
(lp302
F0.009044271576882005
aF0.006498286159702043
aF0.006862732018283888
aF0.007701799762744046
aF0.008626020899181604
aF0.009664616657230033
aF0.010888962764179715
aF0.012348465684355827
aF0.013616220401186789
aF0.015374244026923476
aF0.012783192739955469
aF0.01645964898854405
aF0.0208445021903021
aF0.026502293766454167
aF0.03272323209091026
aF0.025066172803608695
aF0.05992897900934594
aF0.14646346502363694
aF0.3609477690146659
aF1.0491925589000917
asS'A2_y2.00_y2.50_val'
p303
(lp304
F-0.006254094061260698
aF0.006759998359944266
aF0.0569350268538308
aF0.054491480262779016
aF0.09597725777376247
aF0.13597299218386064
aF0.15191551965317246
aF0.1531216333212241
aF0.19940333373229338
aF0.21148383846282962
aF0.26581647651422374
aF0.3218502260774911
aF0.36547263088804544
aF0.40449989163536254
aF0.4266261538976153
aF0.46272932807123074
aF0.5391378666838887
aF0.6338225091816565
aF0.7275053522435977
aF0.8441953529301993
asS'A5_y3.50_y4.00_fit'
p305
(lp306
F0.0
aF0.0003505078535897127
aF-1.5462371822017127e-05
asS'A3_y0.40_y0.60_val'
p307
(lp308
F-0.027620096643509433
aF-0.042791757246231854
aF-0.062096085280010295
aF-0.0680867846611639
aF-0.08548170753767949
aF-0.09636306840239517
aF-0.10431592910099173
aF-0.08727758641889038
aF-0.11483348058425914
aF-0.11752153662799877
aF-0.12217146318690537
aF-0.13331687404281328
aF-0.15776798721179267
aF-0.13993473152049557
aF-0.13108982643119493
aF-0.09546281567930975
aF-0.10930753624839326
aF-0.15946733675153213
aF-0.1860619995719714
aF-0.22350898217916101
asS'A1_y0.60_y0.80_fit'
p309
(lp310
F0.0
aF0.009902504103449727
aF-0.00017783149587561687
asS'A7_y0.20_y0.40_fit'
p311
(lp312
F0.0
asS'A5_y0.60_y0.80_fit'
p313
(lp314
F0.0
asS'A0_y0.20_y0.40_val'
p315
(lp316
F-0.04390589273179107
aF-0.016077245134459683
aF-0.011755636824273824
aF-0.013359661753330946
aF-0.007813717799572692
aF0.022651661712490348
aF0.03688717551711367
aF0.0711536575202243
aF0.10274886178162844
aF0.10855720573894663
aF0.15430140541360357
aF0.22981782775404264
aF0.28142433783335213
aF0.32658561168611633
aF0.3819040673093053
aF0.472136332052826
aF0.6225854163077895
aF0.7021608756379432
aF0.8109579179817864
aF0.973110813009186
asS'A0_y3.00_y3.50_val'
p317
(lp318
F-0.024985053543560294
aF-0.02726673671296297
aF-0.009593027750007836
aF-0.006429092542143046
aF0.022223159121856344
aF0.03891792045288941
aF0.07171627695255334
aF0.08608672371499734
aF0.11556519511094825
aF0.12729565780315022
aF0.18645893885499656
aF0.2578144752665467
aF0.29780978951517095
aF0.37984981120506006
aF0.42548134057602244
aF0.4783037076764914
aF0.6342884512011383
aF0.7412881984991477
aF0.79352243547099
aF0.7763374925444045
asS'A4_y1.00_y1.20_fit'
p319
(lp320
F-0.30821069608506746
aF0.0030729139229420804
aF-3.250066922692429e-05
asS'A0_y4.50_y5.00_val_err'
p321
(lp322
F0.027522674710398255
aF0.020612594268669727
aF0.022860159234507713
aF0.02660975048574335
aF0.031360632502495
aF0.035991762428293834
aF0.04260263442605024
aF0.049643177173651167
aF0.05527297514286644
aF0.06545135342204085
aF0.059053988847090115
aF0.08089040929321155
aF0.11739655048236677
aF0.15823880527581646
aF0.2454096377646482
aF0.23612814875023297
aF1.0657816651076675
aF13.214053893837772
aF0.0
aF0.0
asS'A1_y3.50_y4.00_fit'
p323
(lp324
F0.0
aF0.026199702290161275
aF-0.0002742669544434362
aF-1.2364575410902796e-05
aF1.9842367019029545e-07
asS'A6_y1.60_y1.80_val'
p325
(lp326
F-0.022311599119302077
aF0.00874339204728316
aF-0.003848917909476872
aF-0.015676574287432535
aF-0.01263119889035921
aF-0.005392033300388821
aF-0.007563729062510069
aF0.009066372308607953
aF-0.005240442482674704
aF-0.0008007823836314094
aF-0.009895304740377545
aF-0.012103600597462542
aF-0.012953268151332251
aF0.004058304863330952
aF-0.00910798437371449
aF-0.00813122653290847
aF-0.02053633316658486
aF-0.009204446757762833
aF-0.015245548363987208
aF-0.03172909257746167
asS'A4_y1.60_y1.80_val'
p327
(lp328
F-0.5702607875915551
aF-0.5348125035144285
aF-0.5288798588966439
aF-0.5085351882118185
aF-0.5053265158869659
aF-0.5058473170303581
aF-0.5004088896286685
aF-0.4896146575189664
aF-0.4729671623194142
aF-0.48852006861456737
aF-0.48425919697370207
aF-0.4590489501674052
aF-0.45769563696234017
aF-0.43588281083511216
aF-0.4433046831628163
aF-0.39070142601518154
aF-0.3430207937542946
aF-0.3090976047512791
aF-0.2724953206345204
aF-0.22645841267339809
asS'A3_y1.40_y1.60_val'
p329
(lp330
F-0.014980341311468715
aF-0.06110791595022343
aF-0.08736797670371103
aF-0.0984139095912141
aF-0.11717242324089733
aF-0.14025256874285527
aF-0.17332624822230028
aF-0.16448518194312098
aF-0.18686057895169497
aF-0.1878748046961406
aF-0.20767689208074644
aF-0.22677333249445605
aF-0.2328622378297774
aF-0.23305164048212534
aF-0.19738021813650597
aF-0.21032251110739672
aF-0.21995496510410617
aF-0.316550799675836
aF-0.4240280289503817
aF-0.6187055729577313
asS'A2_y1.40_y1.60_val'
p331
(lp332
F0.001640183324649806
aF0.0168099451068779
aF0.04422702081594885
aF0.07203382296857347
aF0.09778778356202597
aF0.11974041034104815
aF0.14301331513747978
aF0.16649433474841793
aF0.1875628548859341
aF0.23067736294362984
aF0.22296217835631058
aF0.31963099070481
aF0.3249574723654283
aF0.4208667468823898
aF0.3566314496981347
aF0.4361606216557121
aF0.5962167770258678
aF0.6876462616909695
aF0.813101920941146
aF1.0200140447782855
asS'A1_y3.50_y4.00_val_err'
p333
(lp334
F0.0067713311615997624
aF0.004791899869217518
aF0.004947046362633691
aF0.0054813273415678905
aF0.00605994085281876
aF0.006677195553128784
aF0.0073851568869313985
aF0.008134538157724176
aF0.008971318070310371
aF0.009883757364967185
aF0.008054783933697098
aF0.009731124819861063
aF0.012015532125618959
aF0.01471331630674899
aF0.01762810344697801
aF0.012335425651898975
aF0.024889614823396508
aF0.04658346881130115
aF0.0736409204180789
aF0.30482093182703507
asS'A4_y1.40_y1.60_fit'
p335
(lp336
F-0.4588753855408226
aF0.0027531106844903563
asS'A0_y4.50_y5.00_fit'
p337
(lp338
F0.0
aF-0.016788886382111547
aF-0.0006252424361746335
aF0.00013279855622122262
aF-2.12676441280722e-06
asS'A4_y1.60_y1.80_fit'
p339
(lp340
F-0.5416873891890122
aF0.003037079629059785
asS'A6_y4.00_y4.50_fit'
p341
(lp342
F0.0
asS'A3_y0.60_y0.80_val'
p343
(lp344
F-0.010401297574037661
aF-0.0373730747974087
aF-0.07142534734010822
aF-0.08083409495178606
aF-0.08989229459779367
aF-0.10776319286272729
aF-0.11955289353924507
aF-0.11632123006811482
aF-0.1221050331891422
aF-0.12239998968533872
aF-0.15393546963794189
aF-0.15933501665411198
aF-0.1477971448824788
aF-0.14983910547772833
aF-0.13959408159453768
aF-0.11298038559668237
aF-0.11013150387948908
aF-0.15048084612297
aF-0.2054604986029099
aF-0.33479588385912484
asS'A6_y0.40_y0.60_val'
p345
(lp346
F0.0002503528393591636
aF-0.012097295321084209
aF0.008114458810529414
aF0.007947400916474006
aF0.010915744789134648
aF0.02300270634546214
aF-0.002092709011432012
aF-0.02082550174709701
aF-0.0004664372721710369
aF-0.0050121196045727874
aF0.010347750255104515
aF0.00854030299308997
aF-0.023713679940155448
aF0.01463142083485779
aF-0.014442660537758284
aF0.0015651117533965503
aF0.00882976934554249
aF0.01867669357310306
aF-0.06344623281925708
aF-0.0502976484168272
asS'A7_y0.80_y1.00_val_err'
p347
(lp348
F0.008588309058900618
aF0.0058767714030691165
aF0.0058372535382425475
aF0.0062375310492118275
aF0.006734863488065427
aF0.007238148792361566
aF0.00780899261728265
aF0.00846213477751385
aF0.009155633155073221
aF0.009944118656488516
aF0.00781981850498803
aF0.009071149078208678
aF0.010767732458508527
aF0.012588471744926952
aF0.014715051864875529
aF0.009218323937714535
aF0.015231862529000736
aF0.022414027404823123
aF0.024321220966753647
aF0.04814694899911679
asS'A3_y1.60_y1.80_val'
p349
(lp350
F-0.016610337461018386
aF-0.05359732136505253
aF-0.08759914404137266
aF-0.11911678306577951
aF-0.12521945302410067
aF-0.15488811885555806
aF-0.17454653603947645
aF-0.18580788649897878
aF-0.20762821494009698
aF-0.22769708719606233
aF-0.24764309530943876
aF-0.2543271978965466
aF-0.2578258228325409
aF-0.25875528186826136
aF-0.23344462550777637
aF-0.23207510675549983
aF-0.2972312675522794
aF-0.43545061734779655
aF-0.5095483259066828
aF-0.7054383567202882
asS'A7_y1.40_y1.60_val_err'
p351
(lp352
F0.008579867100873328
aF0.005860858411578095
aF0.005846819151724034
aF0.006245648626081506
aF0.006752523093005819
aF0.0072638315591259175
aF0.007889683818025463
aF0.008562611261147553
aF0.00921001753093017
aF0.009908889335182202
aF0.007845789151926559
aF0.009142526963379995
aF0.010819589666081897
aF0.012827212562170459
aF0.014915391583741186
aF0.009487910407489454
aF0.015653139046738002
aF0.022952747428671337
aF0.02511461891435103
aF0.04863422172834827
asS'A7_y3.00_y3.50_val_err'
p353
(lp354
F0.00517909570078583
aF0.003610521028515819
aF0.003673820351114167
aF0.003989071204152016
aF0.004377062744342437
aF0.004781761976361502
aF0.0051896795630596935
aF0.005652136410877369
aF0.006153310304921834
aF0.0066641616839176855
aF0.005348688876191279
aF0.0064099257092665295
aF0.007766045740713349
aF0.00932393601935073
aF0.011025753436435536
aF0.007415756765432899
aF0.013282056644348157
aF0.02187464656204773
aF0.026999498924460748
aF0.07804582751007771
asS'A0_y1.80_y2.00_fit'
p355
(lp356
F0.0
aF-0.004456615496514549
aF0.0008251777053974469
aF-1.1003233575211218e-05
asS'A7_y1.40_y1.60_fit'
p357
(lp358
F0.0
aF0.00042160716510110385
asS'A5_y0.20_y0.40_fit'
p359
(lp360
F0.0
asS'A7_y1.20_y1.40_val_err'
p361
(lp362
F0.008587538501456628
aF0.005876874205375527
aF0.005831024444820747
aF0.006289214565920958
aF0.006735134025647498
aF0.007287229503680699
aF0.007903799870294968
aF0.008519655428825813
aF0.009204984193276138
aF0.0098766429272084
aF0.007841221279000951
aF0.009195889741737915
aF0.010825997371171165
aF0.01262746775285395
aF0.014711851271707188
aF0.00938013452152877
aF0.015218613717531406
aF0.022943435709440345
aF0.02455310805724176
aF0.0501602586379425
asS'A3_y4.00_y4.50_val_err'
p363
(lp364
F0.007385456336311231
aF0.005341870737955434
aF0.005672094012270188
aF0.006456341643167664
aF0.007320611746218736
aF0.008321919355750933
aF0.009511479289628144
aF0.010912704142734162
aF0.012323009389848377
aF0.014148849338187644
aF0.012074654023099662
aF0.015877074479329654
aF0.02077285087415675
aF0.02715716685230313
aF0.03360686746793236
aF0.025918014293039325
aF0.06601387482281693
aF0.17115155648324806
aF0.4075251568474868
aF1.150703582090562
asS'A2_y0.80_y1.00_val_err'
p365
(lp366
F0.018739930436892524
aF0.012852620922042148
aF0.012806092605204399
aF0.013731970792956415
aF0.014866709926759631
aF0.015976606194313913
aF0.01725739503437518
aF0.01891232695437942
aF0.02046505062240662
aF0.02224300922430024
aF0.017645571099087223
aF0.02058567417067091
aF0.024682478979128907
aF0.028857363273719204
aF0.033806876503054105
aF0.02129723830310834
aF0.0357104920047071
aF0.053416915007270055
aF0.05858617970229794
aF0.11689759843743364
asS'A6_y0.60_y0.80_val'
p367
(lp368
F0.0035508674700814235
aF-0.019170164839032763
aF0.0005678066679310255
aF0.006215962040053288
aF-0.0020892618489334125
aF0.007608273012615948
aF0.0035525603003389796
aF-0.0220062614487616
aF-0.004707236774941828
aF0.00022100696981352028
aF-0.012346462352267829
aF-0.003320211548202026
aF0.0024874067696593655
aF0.004235346219778597
aF0.004406894028946082
aF-0.007193545805038267
aF0.003507898817780477
aF0.02891757254292772
aF0.008516857562450126
aF0.023454625413711776
asS'A4_y0.80_y1.00_fit'
p369
(lp370
F-0.24142283592291458
aF0.002488173826645776
aF-2.59879332688822e-05
asS'A3_y0.20_y0.40_fit'
p371
(lp372
F0.0
aF-0.018891839028230353
aF0.0017971957723326906
aF-9.848544934252059e-05
aF2.465624772908719e-06
aF-2.1559599232610355e-08
asS'A3_y0.40_y0.60_val_err'
p373
(lp374
F0.008626931720674445
aF0.005888899228896727
aF0.005842127621875382
aF0.006302025081262832
aF0.006810376139109524
aF0.007388889685556202
aF0.008020981298655274
aF0.00866467357526839
aF0.009353060506036034
aF0.01016167926458551
aF0.008068569170542815
aF0.009481772897242913
aF0.011270470697787114
aF0.013149987219702656
aF0.015255416144986492
aF0.009796298239214284
aF0.01627695850055569
aF0.024452683108327867
aF0.02681478574110553
aF0.05750762298469614
asS'A6_y1.20_y1.40_val'
p375
(lp376
F-0.008123896587833824
aF0.0024937310583523454
aF0.009990318059255715
aF-0.015155088954882776
aF-0.008177824547260681
aF0.004723120745796927
aF0.003101855958142987
aF-0.020909387645939113
aF0.01218051375644809
aF0.0019570956799854606
aF-0.0012340984746369197
aF-0.005752759287653281
aF0.00572231615512735
aF0.020201688065026976
aF0.003351555647702182
aF0.00798758466926894
aF-0.006534570306796771
aF0.017816129204662554
aF-0.035491874674188725
aF0.04444543598041709
asS'A0_y3.00_y3.50_fit'
p377
(lp378
F0.0
aF-0.013187505969052543
aF0.0025028503785836254
aF-0.0001150026319210257
aF2.572401657090928e-06
aF-2.1830567913215403e-08
asS'A5_y1.00_y1.20_val'
p379
(lp380
F0.003704437645986215
aF0.0017522994338346116
aF0.0035145491472528103
aF0.001526815820400283
aF-0.00973446426004109
aF-0.011848814109039077
aF0.005700439658078689
aF-0.012573047242811105
aF-0.00735111797508362
aF0.00755159248282386
aF0.005559126669946142
aF0.0013020559701888712
aF0.002655361447431823
aF0.009267010989460544
aF-0.015139141909987965
aF0.015388766911125073
aF0.0039365186553010625
aF-0.056417491018866804
aF-0.008702375544629602
aF-0.03333426692388003
asS'A7_y1.00_y1.20_val_err'
p381
(lp382
F0.008524559665135637
aF0.005877405968412021
aF0.005828871820256879
aF0.006248495499565304
aF0.0067365867247579795
aF0.007267620687715441
aF0.007903407083316102
aF0.008463380935221124
aF0.009221461821632394
aF0.009901299635227217
aF0.007805123801077888
aF0.009097918218537211
aF0.010798264190760047
aF0.012700899654490377
aF0.014659286814028819
aF0.009259785081608822
aF0.01519630013522318
aF0.022975620812368116
aF0.024519734847462196
aF0.050832682904328456
asS'A2_y0.40_y0.60_fit'
p383
(lp384
F0.0
aF0.009385360885589888
asS'A1_y1.40_y1.60_val_err'
p385
(lp386
F0.010502301782480608
aF0.007191766580527427
aF0.007183334745304897
aF0.0077081223124783075
aF0.008349250249685787
aF0.008998177609933945
aF0.009821914963269493
aF0.010601137783090245
aF0.011493800478744431
aF0.01234361965541703
aF0.009706814304527323
aF0.011336053483201823
aF0.013281972762971554
aF0.015709690318413932
aF0.01816781522046021
aF0.011475187592917302
aF0.01899791552197639
aF0.02756059366812279
aF0.030374604472700573
aF0.05921360758548253
asS'A3_y0.60_y0.80_val_err'
p387
(lp388
F0.008611903022070152
aF0.005903122484443228
aF0.005847137819891849
aF0.006308338308577736
aF0.0068116592635832415
aF0.007395289637788488
aF0.008018884388096845
aF0.008698779900775359
aF0.009408177243477863
aF0.010155518942031644
aF0.008065320842113168
aF0.009470764311010236
aF0.01125801662946672
aF0.01323853599994565
aF0.015389649939338047
aF0.009797625547338606
aF0.016188670701293217
aF0.024780749312860922
aF0.02759832832586097
aF0.05432435865655095
asS'A2_y1.60_y1.80_val_err'
p389
(lp390
F0.018578793572874584
aF0.012735433485869056
aF0.012772929536033702
aF0.013768310700530884
aF0.01491060885758135
aF0.016235719186469624
aF0.017563105500266137
aF0.019145969488464063
aF0.02081957443003522
aF0.022521285968398197
aF0.017849195447588846
aF0.021221816975928023
aF0.024980912780263907
aF0.029642632974945016
aF0.03450370611399403
aF0.022032400721082934
aF0.03715265048290034
aF0.05623284173379691
aF0.06230621008197002
aF0.12162469726196926
asS'A1_y0.60_y0.80_val_err'
p391
(lp392
F0.010555806608599961
aF0.007207419505216591
aF0.0071408722430428544
aF0.007697005506711009
aF0.008278549402868221
aF0.008968604246685283
aF0.009687240318290208
aF0.010461471088234416
aF0.011292479038821874
aF0.012151250942185627
aF0.009573730264252994
aF0.011091739971684637
aF0.013100200132858071
aF0.015302292707803564
aF0.017663595724204853
aF0.011104791779751405
aF0.01798811233341806
aF0.02712311535109004
aF0.02974414266685942
aF0.0576963541464404
asS'A6_y1.60_y1.80_fit'
p393
(lp394
F0.0
asS'A1_y4.00_y4.50_val'
p395
(lp396
F0.0366764981180226
aF0.08463195550443776
aF0.13569119387714912
aF0.1919338727849954
aF0.26937362239643226
aF0.30380804395930056
aF0.3469797711488287
aF0.38180640854698134
aF0.4144322142920413
aF0.4694750848527201
aF0.47032806929605797
aF0.5226740568131243
aF0.5425315585567203
aF0.5765076627806476
aF0.49925106734087227
aF0.44215364145763736
aF0.463645968289689
aF0.30620347256480546
aF0.3026356959284872
aF-0.03195884378772614
asS'A6_y3.50_y4.00_val_err'
p397
(lp398
F0.006769133130774354
aF0.004767848774604426
aF0.004899515513887859
aF0.005392184018046847
aF0.005926795562596183
aF0.00649361230024568
aF0.007160136753188937
aF0.007785455598298809
aF0.008584892768875824
aF0.009384426222398245
aF0.007642584274139152
aF0.009220356957029444
aF0.011379412405110353
aF0.013894261289236737
aF0.016789855794284957
aF0.01164116589207729
aF0.02327692455281905
aF0.0427623348869163
aF0.06665392060268238
aF0.27898950362840497
asS'A0_y1.00_y1.20_val'
p399
(lp400
F-0.01039029529742216
aF-0.01922263182404687
aF-0.02252881073348831
aF0.00563774076319728
aF0.027463293423277857
aF0.04800329424037993
aF0.06848886654731426
aF0.08260384743039413
aF0.12179881770812692
aF0.12939856492260518
aF0.18218003522099768
aF0.2577374402227142
aF0.30475952353277547
aF0.3564759979416249
aF0.44955244880045797
aF0.48400253052524456
aF0.6449065085618203
aF0.722702469641802
aF0.8521801431050444
aF1.0772758742768076
asS'A6_y1.80_y2.00_val_err'
p401
(lp402
F0.010417726629993946
aF0.007151803013069526
aF0.007122749561354205
aF0.007625265264890101
aF0.008220508998033777
aF0.008904105738901965
aF0.009599717128582489
aF0.010421799819227619
aF0.011141579505354864
aF0.012056688622076438
aF0.009484899823242477
aF0.010992706885752566
aF0.013041074515584113
aF0.015364704737266172
aF0.017771210939989058
aF0.011191758045847997
aF0.01832949706192957
aF0.027380387489929058
aF0.02942976979102217
aF0.056770446277609445
asS'A7_y1.80_y2.00_fit'
p403
(lp404
F0.0
asS'A4_y2.00_y2.50_fit'
p405
(lp406
F-0.8491211438036127
aF0.005956961145203832
aF-9.346068516408353e-05
aF1.3431358393282337e-06
asS'A2_y3.50_y4.00_fit'
p407
(lp408
F0.0
aF0.00839156537134883
aF0.0005333144826532004
aF-9.488586282741825e-06
asS'A1_y1.00_y1.20_fit'
p409
(lp410
F0.0
aF0.010539773650297735
aF0.00016905392118498133
aF-1.7400549434313248e-05
aF2.075233759957947e-07
asS'A3_y3.50_y4.00_val_err'
p411
(lp412
F0.005520537016634639
aF0.0039161881681953805
aF0.0040567574218961944
aF0.00450922811306685
aF0.005001707958085273
aF0.005556621036769458
aF0.006168532604970806
aF0.00684531492165085
aF0.007606127801163678
aF0.00845493483104462
aF0.00698452686326443
aF0.008613543863027895
aF0.01079923962626318
aF0.013392707050851693
aF0.016261599249689104
aF0.011578710044482118
aF0.024701276050812
aF0.04816343430325335
aF0.07888255285040369
aF0.3498371185806563
asS'A5_y2.00_y2.50_val_err'
p413
(lp414
F0.005815045736344979
aF0.003997666535358391
aF0.004015760747015582
aF0.004344575100015371
aF0.004731293402962923
aF0.005124825765857579
aF0.005569074905656502
aF0.006047274804297949
aF0.006543874685766943
aF0.007057334131267453
aF0.005637746635874905
aF0.006669338978891748
aF0.007937398452112911
aF0.009424030777345863
aF0.011053505635308514
aF0.007172772253575413
aF0.012018517984618978
aF0.018224982544581114
aF0.02034784391372507
aF0.04206124607465889
asS'A5_y0.00_y0.20_fit'
p415
(lp416
F0.0
asS'A4_y2.50_y3.00_fit'
p417
(lp418
F-1.1699649952403801
aF0.005962846338461761
asS'A1_y1.20_y1.40_fit'
p419
(lp420
F0.0
aF0.014218995384659538
aF-0.00024804576140672425
asS'A7_y4.00_y4.50_val_err'
p421
(lp422
F0.007371400179693796
aF0.005310227401423105
aF0.005608563324335934
aF0.006290854277269459
aF0.007072737869978311
aF0.007927704650932687
aF0.008946560730344038
aF0.010155774413014521
aF0.011244345848505177
aF0.012682438870132335
aF0.010594733290767926
aF0.013681035767169529
aF0.017431656728101506
aF0.02225501786357605
aF0.027708769008093208
aF0.021398064066849583
aF0.05190387939317126
aF0.12868412238733853
aF0.31735076829253306
aF1.2479675569328266
asS'A0_y1.00_y1.20_val_err'
p423
(lp424
F0.012806356884415174
aF0.0088034520545219
aF0.008738623705188993
aF0.009301081187091102
aF0.010022065146665692
aF0.010777889375649078
aF0.011669668764189555
aF0.012490892422651745
aF0.013533577035486449
aF0.014480517686714866
aF0.011408353007335156
aF0.013128488205816795
aF0.01546947823729018
aF0.018117195597821434
aF0.02093485408548843
aF0.013125753872740287
aF0.02161856426486821
aF0.03259972705790596
aF0.03522814895150627
aF0.07435576368418496
asS'A4_y2.50_y3.00_val'
p425
(lp426
F-1.1697714648585045
aF-1.1525462015027592
aF-1.1340325205567126
aF-1.123888427382621
aF-1.1108191181181897
aF-1.1008068757664256
aF-1.0871177789342492
aF-1.0850515015029372
aF-1.073698246755731
aF-1.0711061143296412
aF-1.0536087539370529
aF-1.0284325115211874
aF-0.9872505156233604
aF-0.9675076366280845
aF-0.9421841635068549
aF-0.8569333015570503
aF-0.7186174006572443
aF-0.6321756165852976
aF-0.5500877669229641
aF-0.44609814650987917
asS'A1_y1.40_y1.60_val'
p427
(lp428
F0.005216170460801895
aF0.05345535676870824
aF0.07769069755385677
aF0.08143292629253131
aF0.12129064454595138
aF0.14677530013051468
aF0.16589646200189195
aF0.1757847958311725
aF0.20119416996144193
aF0.21345758170291382
aF0.20655379240274208
aF0.23328035414868037
aF0.20830295322239756
aF0.1708959168540488
aF0.13508883142849246
aF0.08260154455077601
aF0.0574099997130257
aF0.08489130969193957
aF0.041922233440207055
aF0.030082174944235124
asS'A1_y3.00_y3.50_fit'
p429
(lp430
F0.0
aF0.022124468427066057
aF-0.00014445707945159175
aF-1.512453155289072e-05
aF2.2001177143731976e-07
asS'A3_y3.00_y3.50_fit'
p431
(lp432
F0.0
aF-0.03441612986592685
aF0.0009682130054901525
aF-4.317460911521399e-05
aF1.2644463241482333e-06
aF-1.258763614806669e-08
asS'A7_y1.40_y1.60_val'
p433
(lp434
F-0.00017316333554833304
aF-0.0028173210849438005
aF-0.006860830251971839
aF0.0014743766171113146
aF0.0028835026187141836
aF0.004360144504168749
aF0.007411596911750612
aF-0.0005438023825857305
aF-0.0016315440524572442
aF-0.001739544525984123
aF0.007164760092067713
aF0.01073708836840736
aF0.029025060018376247
aF0.014499470861201241
aF0.0197557330425708
aF0.026097094930765063
aF0.012690428515597934
aF-0.011244013589142121
aF0.010557753436511035
aF0.024256249058421907
asS'A6_y0.20_y0.40_fit'
p435
(lp436
F0.0
asS'A4_y0.00_y0.20_fit'
p437
(lp438
F-0.01954421338630774
asS'A5_y0.60_y0.80_val_err'
p439
(lp440
F0.009413061001140883
aF0.006425432683457227
aF0.006354956614945793
aF0.006851460953893991
aF0.007365094070536637
aF0.007956722583304874
aF0.008629538127115016
aF0.009366527718832812
aF0.01015039636580202
aF0.010903316482727035
aF0.008623654965902065
aF0.010118932093147836
aF0.012012459108504231
aF0.014133947513404964
aF0.016434657677142868
aF0.010513344798865544
aF0.017328445615128547
aF0.026421807654785263
aF0.029290542125414838
aF0.057293107903880085
asS'A7_y0.20_y0.40_val_err'
p441
(lp442
F0.00859653802080889
aF0.0058452612079399995
aF0.005807134438280193
aF0.006205503951289774
aF0.006691569153830145
aF0.007224565090357378
aF0.007762647675320999
aF0.008385087123251344
aF0.009063463464536747
aF0.009846112094392694
aF0.007753293124858907
aF0.009026852078220472
aF0.010586740255060565
aF0.01261405637468452
aF0.014417034806595301
aF0.009125540700662077
aF0.014945374642972416
aF0.021869848251550607
aF0.024459698267756475
aF0.04684293764544457
asS'A3_y3.00_y3.50_val_err'
p443
(lp444
F0.005197516229174122
aF0.003632911728808018
aF0.003714974615128804
aF0.004057886404110018
aF0.004488902692606276
aF0.00493642962437712
aF0.005383746387786557
aF0.005907699650513685
aF0.006508843137631457
aF0.007086909479106491
aF0.005759410157671405
aF0.006969694543642346
aF0.008498109480589617
aF0.010226828313851974
aF0.012223098335584416
aF0.008319063331611021
aF0.015579493317790571
aF0.026661536147596535
aF0.03483092873128957
aF0.10659305045653855
asS'A5_y1.80_y2.00_fit'
p445
(lp446
F0.0
asS'A5_y2.00_y2.50_val'
p447
(lp448
F0.0016440206430495157
aF0.0033491400061642753
aF-0.0007327388271500181
aF-0.0002294902305896629
aF0.001397468586616965
aF0.00307430517374366
aF-0.0001819132797653399
aF0.005432332941323916
aF-0.006091625163260006
aF0.0005107292299899435
aF-0.007134127822551617
aF-0.01847139786169401
aF-0.00753511533689509
aF-0.0027900121232497296
aF-0.005490484063574728
aF0.001087140052217619
aF-0.018594616261557992
aF-0.027739998138239238
aF-0.030696433929891704
aF0.07933748405018337
asS'A2_y3.00_y3.50_fit'
p449
(lp450
F0.0
aF0.00798243946448543
aF0.0004106797625059635
aF-7.433693628405169e-06
asS'A1_y1.80_y2.00_val_err'
p451
(lp452
F0.01041447356780034
aF0.007164926751604184
aF0.007179562775131585
aF0.007743055831576359
aF0.00835545214014792
aF0.009102741104874773
aF0.00986142744156131
aF0.010718885444339488
aF0.011575777495146138
aF0.012487799056873684
aF0.009846714442413374
aF0.011485369839803554
aF0.013598857441730432
aF0.016056131028551423
aF0.01854569709224898
aF0.011697225330562406
aF0.019324385085626433
aF0.029301342023482224
aF0.0318175075286975
aF0.06205704848004912
asS'A6_y1.40_y1.60_val_err'
p453
(lp454
F0.010506381900196905
aF0.007187168844409
aF0.007132844951140349
aF0.00761154873225946
aF0.008224002144419333
aF0.00880169783948467
aF0.009563398761089687
aF0.010342540251637411
aF0.01111590098615803
aF0.011920316749010914
aF0.009372732553436555
aF0.01084097310140793
aF0.012772580321749572
aF0.015052016452064937
aF0.01750203189257219
aF0.01098169839420271
aF0.017875613354223916
aF0.025831396971619396
aF0.028139151403865505
aF0.05429630101018443
asS'A5_y4.50_y5.00_fit'
p455
(lp456
F0.0
asS'A6_y1.00_y1.20_val_err'
p457
(lp458
F0.01044071084513924
aF0.007195558219155131
aF0.007126824213694704
aF0.007626882850235347
aF0.008182997391905983
aF0.008831159925088167
aF0.009571066125134585
aF0.010228549332248434
aF0.011098381300553352
aF0.011919843919164435
aF0.009337878824461753
aF0.010810157054095037
aF0.012747134842625959
aF0.014945680777669555
aF0.017091801507171683
aF0.01074072167289892
aF0.017352540864719435
aF0.025819501031620493
aF0.027299176971519554
aF0.056094077879039736
asS'A5_y0.40_y0.60_fit'
p459
(lp460
F0.0
asS'A7_y0.60_y0.80_val_err'
p461
(lp462
F0.00862730929264266
aF0.005882817822495559
aF0.005810289189923811
aF0.006257213423595476
aF0.006701642990762292
aF0.0072342715512134104
aF0.007829729357283821
aF0.008446948286077383
aF0.009166889649921713
aF0.009807184708825882
aF0.007728920917814169
aF0.009063968270964007
aF0.010707283624236398
aF0.01254971454650725
aF0.014530936647002606
aF0.009202048278173749
aF0.014923925538584527
aF0.022539837868950315
aF0.024617565003786878
aF0.047684596589794286
asS'A2_y0.40_y0.60_val'
p463
(lp464
F0.005584133836245619
aF0.021303935134006576
aF0.017997347574476883
aF0.053166121002131174
aF0.09275402231436645
aF0.10581649190392849
aF0.11871307025523196
aF0.15052175332464426
aF0.16518011782985087
aF0.19511926384094638
aF0.19757464446779052
aF0.23451000934224883
aF0.3301042820859519
aF0.370495925374976
aF0.3657916914448926
aF0.4350062515857018
aF0.5936758523831015
aF0.6823019625608728
aF0.7939447837748485
aF0.9258027103603664
asS'A0_y1.20_y1.40_fit'
p465
(lp466
F0.0
aF-0.005073460494215393
aF0.0011049296491207339
aF-2.5877945306635483e-05
aF1.9855752878899698e-07
asS'A5_y1.60_y1.80_val'
p467
(lp468
F0.01326282299083388
aF-0.003457194815424337
aF-0.006288738504302463
aF-0.014579193086987217
aF0.004497503005659911
aF0.00898582929413503
aF0.017296333012803637
aF0.0013059296963005814
aF0.012777923214984043
aF-0.003733073678253459
aF-0.0017077148543197707
aF-0.004953236222017969
aF-0.003450569700909731
aF-0.01835759012838108
aF0.013038993694194624
aF0.008508633993525553
aF-0.02118133945376006
aF0.0026606622691816803
aF0.00646126902146083
aF0.03697209810131419
asS'A0_y0.00_y0.20_fit'
p469
(lp470
F0.0
aF-0.004610498605046254
aF0.0007176549402461829
aF-8.624129663082806e-06
asS'A1_y2.50_y3.00_fit'
p471
(lp472
F0.0
aF0.01978224937765971
aF-0.00010319742326927658
aF-1.5310252492512074e-05
aF2.1730998978148715e-07
asS'A6_y0.00_y0.20_fit'
p473
(lp474
F0.0
aF-0.0009411937554792971
aF2.9978326561604964e-05
asS'A1_y1.60_y1.80_fit'
p475
(lp476
F0.0
aF0.020054951126689702
aF-0.0005733819993364725
aF4.388898579225296e-06
asS'A7_y3.50_y4.00_val'
p477
(lp478
F0.007605784303154499
aF-0.0004969928794999912
aF0.0026137623721895604
aF-6.806104827275022e-05
aF-0.0014476219394947826
aF0.002995184731510932
aF0.0072497265356527285
aF0.008186735790082424
aF-4.6377462737821456e-05
aF-0.006096283424909645
aF0.018566191638445487
aF0.00983470158326949
aF0.01740455379503993
aF0.011336655833704728
aF0.045433973369122714
aF0.041506014629378175
aF0.051325912941640954
aF0.0934940679547056
aF-0.06240048118257447
aF-0.14329661216478778
asS'A2_y4.00_y4.50_val_err'
p479
(lp480
F0.016046219735504543
aF0.011614720954326262
aF0.012288703935040514
aF0.013867822374323477
aF0.01562114564975394
aF0.0176671111353154
aF0.020009477743652585
aF0.022837401278904233
aF0.025535897664417006
aF0.028977407796717713
aF0.024488751221117707
aF0.03182342018561633
aF0.04135468066837972
aF0.053199738282681076
aF0.06625962812712843
aF0.05030683490143452
aF0.1231670987658204
aF0.31040421139876423
aF0.7443997338894274
aF2.9331010402167346
asS'A1_y0.20_y0.40_fit'
p481
(lp482
F0.0
aF0.004872869348760883
aF-8.796663342301551e-05
asS'A6_y1.40_y1.60_fit'
p483
(lp484
F0.0
asS'A0_y3.50_y4.00_fit'
p485
(lp486
F0.0
aF-0.01033609607125277
aF0.0015817732901536007
aF-3.850423932992889e-05
aF2.947837788405806e-07
asS'A2_y0.80_y1.00_val'
p487
(lp488
F0.006635274295880788
aF0.01741245879366445
aF0.05099049380193557
aF0.05826726300819635
aF0.09305557810451658
aF0.07623742818449607
aF0.11925915606404307
aF0.161634203269466
aF0.17942862441433033
aF0.15147418437806606
aF0.2383817362100484
aF0.2622184843522181
aF0.33131256931256997
aF0.39016731189729886
aF0.38563550301475935
aF0.4518231001785867
aF0.5566747672722194
aF0.705400930132126
aF0.8239157215201498
aF0.8794237225043529
asS'A3_y0.80_y1.00_val'
p489
(lp490
F-0.032287603915171055
aF-0.04355077178834339
aF-0.07356302138735872
aF-0.07589888652193934
aF-0.10604274877741199
aF-0.09172409367261404
aF-0.13166802654626159
aF-0.12671420412350917
aF-0.1414486469180025
aF-0.1573926928277016
aF-0.16387729119635472
aF-0.16545860958773184
aF-0.18368083142833785
aF-0.16485111146349704
aF-0.13673219426682515
aF-0.1294809512404655
aF-0.13501774736521488
aF-0.16871682606390231
aF-0.20423211537857852
aF-0.46297119839704154
asS'A2_y4.50_y5.00_val_err'
p491
(lp492
F0.04050264927592276
aF0.030094946639937774
aF0.033381894947711446
aF0.03883179123017931
aF0.04553681135976187
aF0.05356192165787746
aF0.06438722812572702
aF0.07670026546024777
aF0.08709078420383272
aF0.10684713807747417
aF0.09977390172945767
aF0.14019271189980215
aF0.21798303848579617
aF0.28669241380370264
aF0.43259852060321136
aF0.417078779762599
aF1.861898635833524
aF20.08097624884625
aF0.0
aF0.0
asS'A0_y0.60_y0.80_val'
p493
(lp494
F-0.025857935579258133
aF-0.02451747800779366
aF-0.01727108344292368
aF0.01601119183883684
aF0.038667524166108413
aF0.03771144606655708
aF0.07655197337410329
aF0.08256719748114295
aF0.1183029515637858
aF0.12876808581133978
aF0.1775923131897505
aF0.24433226091654864
aF0.2805873608345504
aF0.32373684880790377
aF0.38682396792728596
aF0.47609649858529207
aF0.6458030167551123
aF0.7481847489740288
aF0.854280814618887
aF0.8166700083519026
asS'A5_y0.80_y1.00_fit'
p495
(lp496
F0.0
asS'A1_y3.50_y4.00_val'
p497
(lp498
F0.03879648474259812
aF0.08300448437887553
aF0.12031251124449288
aF0.1714549443520662
aF0.19695555478982732
aF0.23777867161173372
aF0.26525611034000773
aF0.3112474184147235
aF0.3117634896959682
aF0.34069056558047595
aF0.36989958222358466
aF0.3612378287582689
aF0.3783530767662284
aF0.35241027312650386
aF0.3141645544252639
aF0.3207526999279235
aF0.3181874453616888
aF0.4082909100504651
aF0.4377806688704396
aF0.052157520902862686
asS'A3_y2.50_y3.00_val'
p499
(lp500
F-0.03856902389165246
aF-0.08630828700806528
aF-0.1274626904478764
aF-0.1707494241229926
aF-0.20663655415249182
aF-0.2463982844283992
aF-0.27743308017887963
aF-0.3199447879398814
aF-0.3491091778101725
aF-0.37132348037470686
aF-0.40730864807116
aF-0.4449818258940736
aF-0.4732856804792634
aF-0.48118256749030397
aF-0.47759194746299305
aF-0.5292349174769297
aF-0.699852446352829
aF-0.8338362242796198
aF-1.0459126626167565
aF-1.3435813532924599
asS'A4_y4.50_y5.00_val_err'
p501
(lp502
F0.028501067760569116
aF0.021059352744265836
aF0.02356886031499802
aF0.027515270631785826
aF0.032581804846043026
aF0.03746326270993557
aF0.04447284186645012
aF0.05115400449438176
aF0.057025565011242375
aF0.06712319323477536
aF0.06085282958262999
aF0.07679054846119865
aF0.10094761218702548
aF0.12967040606923413
aF0.18092837573141435
aF0.20016494323765757
aF0.8096850266220491
aF40.62898577556456
aF0.0
aF0.0
asS'A2_y0.20_y0.40_val_err'
p503
(lp504
F0.018752237601560164
aF0.01277724385403919
aF0.012677014697051302
aF0.013626130172520583
aF0.014731513743090304
aF0.015969147329595885
aF0.017231452044268934
aF0.01863536416358981
aF0.020258827485524062
aF0.02211905141683889
aF0.017477920836544134
aF0.020461969700038427
aF0.024135699440102777
aF0.02882573057497917
aF0.03319834047632061
aF0.021095920700818643
aF0.035017081811776006
aF0.0518617873164519
aF0.058609226547646116
aF0.11510206266422814
asS'A5_y0.00_y0.20_val_err'
p505
(lp506
F0.009395071391379153
aF0.0064051749412793796
aF0.006362174653280065
aF0.006824447810545752
aF0.007336437245412223
aF0.007961914577115608
aF0.008607038140169044
aF0.009243622768767784
aF0.010079876311419373
aF0.010856231604427698
aF0.008584510415863911
aF0.010111996632946573
aF0.011910681307484808
aF0.013984709091606429
aF0.016308547400778663
aF0.010419566965859307
aF0.01749381266186126
aF0.02617787597465822
aF0.02793994287547116
aF0.05727078483743796
asS'A4_y0.40_y0.60_val'
p507
(lp508
F-0.12153742150287238
aF-0.13429849581323616
aF-0.1234918322699514
aF-0.10437358162182682
aF-0.10310613415156647
aF-0.10352702253154882
aF-0.12048156905224199
aF-0.11474275263669631
aF-0.10211269246872916
aF-0.10093866925508448
aF-0.11394727846771215
aF-0.11394312374735775
aF-0.08318977569485353
aF-0.07862391800037043
aF-0.0883196881768977
aF-0.09422017412133915
aF-0.0724566995532878
aF-0.06941663625289639
aF-0.045869391766887216
aF-0.08675677878460739
asS'A2_y1.00_y1.20_val'
p509
(lp510
F0.02259311656075667
aF0.025306329461185776
aF0.02270217968749682
aF0.05063903510935355
aF0.09247993932689116
aF0.1425073858189242
aF0.127802825606574
aF0.1787278364232148
aF0.1892488874871637
aF0.17976932540088
aF0.2684848311942116
aF0.2936202168050645
aF0.3280598464213436
aF0.32760722993876434
aF0.39965946605493746
aF0.45427245445120634
aF0.5427687933287572
aF0.5883029248063385
aF0.8860650602160667
aF0.7992458346078429
asS'A2_y1.20_y1.40_fit'
p511
(lp512
F0.0
aF0.0077076517033558
aF0.0002917594015869312
aF-5.144052237719958e-06
asS'A6_y2.50_y3.00_val_err'
p513
(lp514
F0.006400332159161586
aF0.004425606563950841
aF0.004453494683470294
aF0.004803941544298843
aF0.005223533274392762
aF0.005668001717492084
aF0.0061320893938743865
aF0.006604829819758374
aF0.0071446674915815085
aF0.007715679321527417
aF0.006134566487707273
aF0.007167131446566441
aF0.008506097647270965
aF0.010239344964973052
aF0.011827403685031278
aF0.00761984587706812
aF0.012733624136432073
aF0.019028301125065553
aF0.02216405337639034
aF0.051423881391121494
asS'A2_y0.60_y0.80_val'
p515
(lp516
F-0.0024239446202900393
aF0.008879986030453792
aF0.03904734789890644
aF0.060021279056200874
aF0.09163906435011021
aF0.11280779754075536
aF0.12119033017907391
aF0.1465303459954823
aF0.14362831568532672
aF0.18018229736885175
aF0.24483654380287803
aF0.2597730594710188
aF0.31716728075011863
aF0.4012890257627634
aF0.4223976237885926
aF0.4221189309746734
aF0.5998440492371778
aF0.6249826749676787
aF0.6919382822774773
aF0.8904360184509997
asS'A6_y1.60_y1.80_val_err'
p517
(lp518
F0.010387784285431478
aF0.007158227489681577
aF0.007126600472528864
aF0.007643681417926427
aF0.008214780979799927
aF0.008880452362628308
aF0.009539447750745621
aF0.010344579756267985
aF0.011185193228948004
aF0.012011680059144733
aF0.00939711840227411
aF0.011023163616931776
aF0.012820215241862165
aF0.015145628251439957
aF0.01759107922870095
aF0.011042747676010753
aF0.01810471863380588
aF0.02638458732041079
aF0.028924632078611668
aF0.05602994268631932
asS'A6_y0.80_y1.00_fit'
p519
(lp520
F0.0
asS'A7_y0.80_y1.00_fit'
p521
(lp522
F0.0
asS'A6_y1.80_y2.00_fit'
p523
(lp524
F0.0
asS'A7_y0.80_y1.00_val'
p525
(lp526
F-0.011834923161111037
aF0.004965166933388123
aF0.0029765272014957013
aF0.0029486250714590317
aF-0.009776232735267001
aF0.013468918472607078
aF0.0008463379613508317
aF-0.007053711855841926
aF0.007426423597361472
aF-0.00513777994305437
aF0.013825897566530297
aF0.010296710450655827
aF0.010394681867764882
aF0.008066848531117063
aF0.02200061196092743
aF0.01510698067699902
aF0.021184493408849987
aF0.0010205314399019392
aF0.0100791068123257
aF-0.08263772848252829
asS'A7_y1.60_y1.80_val_err'
p527
(lp528
F0.008483999621715397
aF0.005839090902251751
aF0.0058344865880031
aF0.006262070881273923
aF0.0067511164811615045
aF0.007341002472969737
aF0.007906110155510196
aF0.00857097156386139
aF0.009279485260387757
aF0.01000486078658239
aF0.007859584808277137
aF0.009272315028507101
aF0.010877519680781914
aF0.01291090885611213
aF0.014994883369109492
aF0.009527656993858154
aF0.01585961729818642
aF0.023508979922378753
aF0.02587608383983951
aF0.05101606261261579
asS'A3_y4.00_y4.50_val'
p529
(lp530
F-0.047787402356371064
aF-0.12662611488834644
aF-0.19383760783353846
aF-0.27676493919917744
aF-0.3713770310850195
aF-0.4371023584879348
aF-0.5101606647449047
aF-0.5819505734187822
aF-0.658911255007976
aF-0.7400456850149469
aF-0.829125513399904
aF-0.9630139659357357
aF-1.0500904088174428
aF-1.1554888320801502
aF-1.1257469834529457
aF-1.142993675920776
aF-1.3938228917145188
aF-1.6245716574654652
aF-1.4094795021859103
aF-1.0386325081918883
asS'A7_y4.00_y4.50_fit'
p531
(lp532
F0.0
aF0.0005019046029456076
asS'A1_y2.00_y2.50_val_err'
p533
(lp534
F0.006528300500495902
aF0.004491594210246395
aF0.004520494258785745
aF0.0048854522643039106
aF0.005315713914567214
aF0.005782193195578851
aF0.0062678774422434465
aF0.006793658002910162
aF0.0073326966673807155
aF0.007910369795279372
aF0.006296117776865745
aF0.007361706122952795
aF0.008695715757140695
aF0.010246585373016573
aF0.01189680259501654
aF0.0075825751487025314
aF0.012500231978665025
aF0.018740390459529892
aF0.020673712056843926
aF0.04240739992038754
asS'A5_y2.00_y2.50_fit'
p535
(lp536
F0.0
asS'A1_y3.00_y3.50_val_err'
p537
(lp538
F0.006354853086425279
aF0.00444223534799106
aF0.004529569232656888
aF0.004938399083503031
aF0.005429632682454443
aF0.005948877232306014
aF0.006451025903035553
aF0.007031183941045567
aF0.0076907441789894546
aF0.008349778366939809
aF0.006719901509408491
aF0.008000432159481779
aF0.009631540247189067
aF0.011441667395781108
aF0.013513051221373409
aF0.009040489100062665
aF0.016187402559147093
aF0.026604716310607956
aF0.03307513561633718
aF0.09684460543788444
asS'A6_y3.50_y4.00_val'
p539
(lp540
F-0.006703088601644252
aF0.005020381394830166
aF-0.005286348415486385
aF0.0021641243725494413
aF0.005012335637145876
aF-0.007155252523404841
aF-0.01338505140886915
aF-0.003124783992877892
aF-0.0024672590140270047
aF-0.0035416273715840035
aF-0.00290584842415762
aF-0.0019349916284594588
aF-0.021509106680847722
aF0.0052995551734520505
aF-0.04251019210475398
aF-0.030709229356939437
aF-0.05698658119274836
aF-0.012890062352916584
aF0.1016780537038325
aF0.2535495950594064
asS'A4_y3.00_y3.50_val'
p541
(lp542
F-1.5052377942463924
aF-1.484870103641862
aF-1.4668036126969748
aF-1.4577164858552865
aF-1.44957669979556
aF-1.441443840509705
aF-1.439304403315985
aF-1.4170490821836734
aF-1.4122504043363648
aF-1.4084009562660587
aF-1.373338226677204
aF-1.3370789388458375
aF-1.2941512577835244
aF-1.2465408191952427
aF-1.199282780455403
aF-1.1052727691003945
aF-0.9453973015186545
aF-0.8289706003840829
aF-0.6937456582828178
aF-0.604858263995319
asS'A7_y0.00_y0.20_val_err'
p543
(lp544
F0.008614592375761445
aF0.005873358709964735
aF0.005825687809150879
aF0.006221647034447664
aF0.006702162999279601
aF0.007218220473229281
aF0.00781368495719378
aF0.008345718205643933
aF0.009100457541510364
aF0.009824737456374702
aF0.007717065701728229
aF0.009022171101307203
aF0.010600626400906693
aF0.012415745042962814
aF0.014407842250767895
aF0.009102687969561334
aF0.01502366242397025
aF0.022218665245320936
aF0.023457228681070454
aF0.04760589904675365
asS'A2_y1.40_y1.60_val_err'
p545
(lp546
F0.018742836594169348
aF0.012801813215069817
aF0.012814107135548786
aF0.013734561552661952
aF0.014934339036451203
aF0.016116251994952775
aF0.017484622037042846
aF0.019143940270301828
aF0.02064073729229622
aF0.022252505855489126
aF0.017708387584509547
aF0.020898416197703832
aF0.0248384540480173
aF0.029502016790322837
aF0.03412486245744449
aF0.021920350294379994
aF0.03682340439778463
aF0.05480453705813596
aF0.060469815260347566
aF0.11930176205762356
asS'A7_y3.00_y3.50_val'
p547
(lp548
F0.004149777585075287
aF0.004093185903751128
aF0.001467600025999331
aF-0.004989589735020648
aF0.007261301165470893
aF-0.007889376179572496
aF0.007228950293598369
aF0.007430951511416379
aF0.0035175515961025933
aF0.0019097051447981039
aF0.0005524554644354474
aF0.003666848393098427
aF0.006812277257884051
aF0.024303951459839296
aF0.03946578007441843
aF0.042517997658508576
aF0.0453201638104841
aF0.05680096379668366
aF0.0037234107938448305
aF0.03636920269344962
asS'A7_y0.00_y0.20_fit'
p549
(lp550
F0.0
asS'A6_y0.60_y0.80_val_err'
p551
(lp552
F0.01053726081881529
aF0.00718900794636083
aF0.007100563544395289
aF0.007636112905858209
aF0.008142973157433587
aF0.008796099255865305
aF0.009474150373586157
aF0.010180806950783973
aF0.011024270044878635
aF0.011790386564677345
aF0.009266732693290916
aF0.01076989611084349
aF0.012682821682210825
aF0.01480704874865723
aF0.017019889624973132
aF0.010676703181957112
aF0.01703622871087582
aF0.025394862548003223
aF0.027431370929681634
aF0.052832186219864935
asS'A0_y0.20_y0.40_val_err'
p553
(lp554
F0.01297031482335646
aF0.008777672406602155
aF0.008707153316340654
aF0.009314076350649467
aF0.010010005640343905
aF0.010746802780049759
aF0.011574931424107973
aF0.012402151081962727
aF0.013378746158695456
aF0.014498759289309326
aF0.011336285693904418
aF0.013084555427611961
aF0.01524313806080624
aF0.018091171386047274
aF0.020597784826531376
aF0.012921716676667559
aF0.02119860632484727
aF0.031121002420508137
aF0.034841469407611646
aF0.06798835187275258
asS'A6_y2.50_y3.00_val'
p555
(lp556
F-0.006244675420372255
aF-0.0057881905861552905
aF0.00872085101517884
aF0.007555526640957208
aF0.006983676728217434
aF0.009310379997988125
aF0.0058434972637739745
aF-0.0006529980027061849
aF-0.006372204042576859
aF0.001914830564103238
aF-0.0012229349140350616
aF-0.00452953031543329
aF0.005491252012231121
aF-0.019891717277997826
aF-0.007682873908588352
aF-0.017769356756313626
aF-0.014402544532498208
aF-0.012355309678949319
aF-0.009628245736497298
aF-0.08611687992151575
asS'A3_y4.50_y5.00_fit'
p557
(lp558
F0.0
aF-0.033967780292572636
aF-0.0020694166575044044
aF4.098321554010692e-05
asS'A0_y3.50_y4.00_val'
p559
(lp560
F-0.034263887530571836
aF-0.018458922634770582
aF-0.01674350258853867
aF-0.014310393338971376
aF0.012082310325263105
aF0.04804938342862295
aF0.053554236764306616
aF0.09337153891198417
aF0.10566914640588901
aF0.14643237899627143
aF0.19434463915891484
aF0.24426870565360054
aF0.33364513749615166
aF0.3579451666349573
aF0.39228388998481056
aF0.4662837271873995
aF0.5989243917219483
aF0.7023711694561919
aF0.9135418402750206
aF1.122819738913813
asS'A7_y0.40_y0.60_val_err'
p561
(lp562
F0.008629493486140491
aF0.005874668484388341
aF0.005812836826263058
aF0.006226040634860057
aF0.0066985761427254
aF0.0072345479879846195
aF0.007850735945469454
aF0.008407265050179104
aF0.0090485094645322
aF0.009803265720841099
aF0.007773174529979515
aF0.009050885386327255
aF0.010700506529679882
aF0.01243075905534285
aF0.01445466417313843
aF0.009200949510012055
aF0.015020205564473001
aF0.022085978465320406
aF0.023976397030439973
aF0.05091900718821763
asS'A4_y1.00_y1.20_val_err'
p563
(lp564
F0.010327249811034283
aF0.007105921067497612
aF0.0070508588064926055
aF0.00749936766073626
aF0.008051991109815141
aF0.008674160738238353
aF0.009379766343929891
aF0.010014598973385578
aF0.010827911975899811
aF0.011578869124015328
aF0.00906502316567009
aF0.010380201007649123
aF0.012150318112215515
aF0.01415077478714116
aF0.016150364670635037
aF0.01006724965164642
aF0.016140510872981306
aF0.02382747536117542
aF0.02523743585111737
aF0.05182906108267993
asS'A6_y0.20_y0.40_val_err'
p565
(lp566
F0.01055730833818834
aF0.00714318163694545
aF0.007105991583661913
aF0.00757890633651818
aF0.008159351971133825
aF0.008789426262654585
aF0.009419817814532149
aF0.010127835038719822
aF0.010905343416203325
aF0.011859566156917228
aF0.00927509545133975
aF0.01073967074310776
aF0.01255832382712003
aF0.014855291009182108
aF0.016897481871319054
aF0.010566680918468322
aF0.01700159159390136
aF0.024768757074730703
aF0.027174965962638117
aF0.051777468174806315
asS'A4_y0.00_y0.20_val'
p567
(lp568
F-0.0222052609819301
aF-0.026626058408369308
aF-0.014854568078330372
aF-0.019847806309527063
aF-0.019873073139837473
aF-0.01355834912536685
aF-0.00790344674490853
aF-0.03917751068158348
aF-0.030277396716295958
aF-0.03110123805265279
aF-0.01315061415211863
aF-0.03440843755990284
aF-0.0043193236130333055
aF-0.010177113938279185
aF-0.014497587204843123
aF-0.006728432061279957
aF-0.018456595080499672
aF-0.015491083148862909
aF0.017841753558950374
aF0.003395360077767303
asS'A6_y1.20_y1.40_val_err'
p569
(lp570
F0.010498238520502445
aF0.00718335374353821
aF0.007130628229693863
aF0.0076660281387711145
aF0.008187637110492123
aF0.008840056830053913
aF0.009566885018159672
aF0.010293628190012307
aF0.011072024370498814
aF0.011837671523654466
aF0.009363927705590601
aF0.010951037124552943
aF0.0127365933565678
aF0.014854902242863711
aF0.017275228296356394
aF0.010863614435754811
aF0.01734233476246235
aF0.025941331171484432
aF0.0272908148251526
aF0.05570231278877367
asS'A3_y0.20_y0.40_val'
p571
(lp572
F-0.02503449359863161
aF-0.04431852369577526
aF-0.05517732593209148
aF-0.08645850152685433
aF-0.0700371794501475
aF-0.084163587942433
aF-0.08472298550926605
aF-0.11708798489603221
aF-0.12062962440738523
aF-0.12303992348908514
aF-0.12382228316593753
aF-0.12921895493154933
aF-0.135454357125331
aF-0.1301761902687025
aF-0.08926089842890243
aF-0.08949261120033984
aF-0.09554574520364562
aF-0.13543399873510628
aF-0.15320917133441772
aF-0.19396053531903726
asS'A7_y2.00_y2.50_fit'
p573
(lp574
F0.0
aF0.0004145755889513464
asS'A6_y0.60_y0.80_fit'
p575
(lp576
F0.0
asS'A1_y1.00_y1.20_val_err'
p577
(lp578
F0.010474927125567877
aF0.007220348524518912
aF0.007177585849956887
aF0.007694156892130681
aF0.008312304590067255
aF0.009031499513932213
aF0.00979467193441684
aF0.01054533038066609
aF0.0114467911623586
aF0.012273476301907412
aF0.009692539864110478
aF0.011215101854167731
aF0.013197075349544278
aF0.015502810665434989
aF0.0177670187686618
aF0.011211586290303631
aF0.018387161736887783
aF0.02749532638555735
aF0.02954125080699174
aF0.06142188682638505
asS'A7_y0.60_y0.80_val'
p579
(lp580
F0.0020317191618189692
aF0.004034085225302195
aF0.007469228772281471
aF0.0013952513122133482
aF0.011894724152824856
aF0.0015019071944153836
aF0.005653709037516241
aF-0.009334562015487989
aF-0.0027192946477859383
aF-0.0022309721623246562
aF-0.012216138538652102
aF0.007946378649247408
aF0.009444617351503709
aF0.01010354672205206
aF-0.009648813278610441
aF0.006976925628105234
aF-0.004004365880963293
aF0.04134720949269114
aF0.05118142695270502
aF-0.015239926723167357
asS'A4_y0.00_y0.20_val_err'
p581
(lp582
F0.010407531335454138
aF0.007072748475277843
aF0.006991376247893544
aF0.007463467447620266
aF0.00800096909362004
aF0.00858961412296077
aF0.009258179503010751
aF0.009871763181455873
aF0.010647710997879539
aF0.011430804478463353
aF0.008936807226311285
aF0.01033278054083191
aF0.01197665725620694
aF0.013801040925833447
aF0.015834332887112623
aF0.009847845460424127
aF0.01590922629097156
aF0.022987589821165343
aF0.02401981581307017
aF0.04844667324970473
asS'A1_y4.50_y5.00_val_err'
p583
(lp584
F0.022885194130570698
aF0.017010549308723016
aF0.01907402118985381
aF0.022365708628843538
aF0.026669419042697328
aF0.03185737563327448
aF0.038523197731486054
aF0.04640246422479232
aF0.05268696421263428
aF0.0641383934909346
aF0.05914156545343408
aF0.08062073184664971
aF0.11663422327149002
aF0.13943880031892975
aF0.20153955367132945
aF0.21642788258082027
aF0.9583733437694749
aF11.651524741216944
aF0.0
aF0.0
asS'A5_y1.20_y1.40_val_err'
p585
(lp586
F0.009391902623807688
aF0.0064161799722760185
aF0.006390320267732362
aF0.006910929605272548
aF0.007400005475730124
aF0.008023611407651355
aF0.008734968280169238
aF0.00939953322213912
aF0.010225994212072731
aF0.011005316860248734
aF0.008741373327244978
aF0.010306581700726925
aF0.012188615057999076
aF0.014234478532020922
aF0.016720474373107076
aF0.010750992397700707
aF0.017709284242086874
aF0.02693336329344003
aF0.029136404107255674
aF0.06001912775944336
asS'A5_y2.50_y3.00_val'
p587
(lp588
F-0.0018541934431911598
aF0.004406174083680536
aF-0.0005314847946150728
aF0.0034899757786228587
aF0.004946721999372092
aF-0.0024199329489045366
aF0.003634122832981916
aF-0.004563512381404891
aF-0.0036625268042662
aF0.001300027729481446
aF-0.0026418287978557282
aF-0.00644616385250802
aF0.004108980689569691
aF-0.009674064300017923
aF0.006456446114737278
aF-0.011510872694490365
aF0.011637993655501243
aF0.0030026243547604807
aF-0.03079070372579716
aF0.05651739781189207
asS'A5_y1.00_y1.20_val_err'
p589
(lp590
F0.00933052615938422
aF0.006414042289219242
aF0.006369483389873664
aF0.006842333211529109
aF0.0074087168177997325
aF0.008016918533763094
aF0.008720311007480388
aF0.009396506338429656
aF0.010274468021058235
aF0.011007115389622856
aF0.008728190728501898
aF0.01020304909035797
aF0.01212071563964761
aF0.014323321907667934
aF0.016635581318777275
aF0.010606469095564546
aF0.017722495713165802
aF0.027035709825635534
aF0.029128182038673747
aF0.061098115889894056
asS'A2_y0.20_y0.40_fit'
p591
(lp592
F0.0
aF0.009424780667140684
asS'A0_y0.80_y1.00_val'
p593
(lp594
F-0.047160331431368135
aF-0.007782987122426079
aF-0.01990386275707519
aF0.019095673781505146
aF0.02800796083299498
aF0.020876208956197406
aF0.04885985338538922
aF0.09111834890236506
aF0.11174954101106051
aF0.140948865383742
aF0.18559328894996516
aF0.2540153834576641
aF0.3381879874967085
aF0.3279861291606313
aF0.4110058807321414
aF0.4844689140067371
aF0.6303773866094092
aF0.7532916004081679
aF0.8583404335578027
aF0.9725826818428729
asS'A3_y2.50_y3.00_val_err'
p595
(lp596
F0.005224025535790376
aF0.0036322106652139667
aF0.0036835388392741707
aF0.0040019466385923085
aF0.004384718392838555
aF0.00480637046168393
aF0.005232223382805624
aF0.0057008911466998
aF0.006235109322697717
aF0.006770279852366201
aF0.005444612487695183
aF0.006471344414802383
aF0.007770901650285914
aF0.00946488062098106
aF0.01094195775524321
aF0.007200089663828577
aF0.012649709011636708
aF0.01961204118176646
aF0.024004930141435152
aF0.059692407415729905
asS'A1_y4.50_y5.00_val'
p597
(lp598
F0.05722149560476953
aF0.08977034038121835
aF0.18409673507176233
aF0.2595450416548729
aF0.3400573526999428
aF0.49568623896235264
aF0.6224662296114406
aF0.7833112404759512
aF0.8253343861728514
aF0.9571464986098467
aF1.0724307899996164
aF1.2752085561490003
aF1.4305193015912365
aF0.8999770567197517
aF0.8410083242605783
aF1.1102571293927341
aF0.8838695245950835
aF-3.9332322612878294
aF0.0
aF0.0
asS'A6_y0.40_y0.60_fit'
p599
(lp600
F0.0
asS'A0_y3.00_y3.50_val_err'
p601
(lp602
F0.007740679806692209
aF0.005395431136745066
aF0.005480552819743837
aF0.005939265603399009
aF0.006489081383509575
aF0.0070801775794608855
aF0.007649736818519955
aF0.00829649647976189
aF0.009015867982788627
aF0.009743432650419874
aF0.007777619533139222
aF0.009257390499919787
aF0.01114669110129711
aF0.0132913905981931
aF0.01575142734409209
aF0.01052829834221942
aF0.01887483832786482
aF0.03121300480430914
aF0.038735651917120924
aF0.11213682437508496
asS'A5_y0.20_y0.40_val'
p603
(lp604
F-0.006388297156582388
aF-0.00982363121191381
aF0.00941456204817839
aF-0.019462498760152696
aF0.0044418343762531965
aF-0.006384295425626853
aF-0.009538199964629662
aF0.0023431705215393767
aF0.015030104894454758
aF-0.021094359522986383
aF-0.00011603670885672546
aF0.0038067519178623488
aF0.005124140568363456
aF-0.006695520458602401
aF0.005267069166165425
aF0.009582693981997228
aF-0.007014077435549633
aF0.0032416230375845014
aF0.006555417090112563
aF0.06528074713865935
asS'A7_y1.00_y1.20_val'
p605
(lp606
F-0.012189975700913729
aF-0.001583424584499317
aF0.0018290768030977277
aF0.0021639326889364907
aF-0.005462463377387327
aF-0.004511763700155337
aF0.0007502421393299484
aF0.0009940441738304734
aF-0.004578525159290605
aF-0.007923741543523315
aF0.0035949766094089185
aF-0.010920629532114492
aF-0.002947367038481075
aF-0.0011731371820798253
aF0.013959033134181675
aF0.026418050834405994
aF0.01430382419359586
aF-0.02463739586519513
aF0.04926275323221907
aF0.1084961073078699
asS'A3_y0.00_y0.20_fit'
p607
(lp608
F0.0
aF-0.012654508997418129
aF0.0003938604719160854
aF-3.5319331775129957e-06
asS'A0_y0.40_y0.60_val'
p609
(lp610
F-0.019339832998788817
aF-0.01988544332067772
aF-0.011936332788139003
aF0.005475749177138033
aF0.02062610087234462
aF0.023587055202189792
aF0.04481144008952423
aF0.05438127487503306
aF0.08135299606741432
aF0.1346204043064672
aF0.1660341017396886
aF0.20945597037395328
aF0.2901635608306284
aF0.34258396271826314
aF0.3777188237436738
aF0.4898334507288308
aF0.6224069133626738
aF0.7370136267507539
aF0.831971732563676
aF0.9015910486655083
asS'A4_y1.00_y1.20_val'
p611
(lp612
F-0.30894877069970483
aF-0.30444492824453256
aF-0.3051477607756828
aF-0.2766718273105271
aF-0.2775499429500712
aF-0.27139259431549767
aF-0.27874568366100533
aF-0.24083522462783125
aF-0.2647854821114402
aF-0.2625217229489063
aF-0.25761247909488094
aF-0.2670587502104069
aF-0.2717364726654993
aF-0.22970673628642757
aF-0.240624480093238
aF-0.22995456544693132
aF-0.1902181673849757
aF-0.1765003339095022
aF-0.1776034381112925
aF-0.2793240413729926
asS'A4_y1.80_y2.00_fit'
p613
(lp614
F-0.6406065904724484
aF0.003220661865427448
asS'A1_y0.00_y0.20_val_err'
p615
(lp616
F0.010577912240491084
aF0.007214016621286383
aF0.007157639460471691
aF0.0076947985491143435
aF0.008259525169804402
aF0.008896044869974043
aF0.009645275237085964
aF0.010341215704145703
aF0.011197169363710683
aF0.012053531183442597
aF0.009504875951047534
aF0.011093255867601928
aF0.012915100898333701
aF0.01507329200191447
aF0.017435736384522893
aF0.010984817082624426
aF0.018157586956680415
aF0.02665176244034579
aF0.02818618641560129
aF0.057347221440116634
asS'A5_y3.00_y3.50_fit'
p617
(lp618
F0.0
asS'A2_y3.00_y3.50_val_err'
p619
(lp620
F0.01131075611798425
aF0.007894803907678036
aF0.00805411835785515
aF0.008782350848707952
aF0.00967468376894751
aF0.010627000365076331
aF0.011565076161734791
aF0.012609779262268998
aF0.013832283797507769
aF0.015047861335363457
aF0.012165994699405176
aF0.01465892110489912
aF0.017829465221360422
aF0.02148997977490106
aF0.025581964852971553
aF0.017221054224485204
aF0.03132201463776573
aF0.052014244905117496
aF0.06542060124705414
aF0.19114062483631672
asS'A4_y3.50_y4.00_val'
p621
(lp622
F-1.8070590710995205
aF-1.794186311210793
aF-1.7851556400733444
aF-1.7743042470146981
aF-1.7637133746076106
aF-1.7505605031634635
aF-1.744359235273207
aF-1.7189022572146828
aF-1.711458079412475
aF-1.6838510769173631
aF-1.6593760841811243
aF-1.6053982700086038
aF-1.5321693713483115
aF-1.492697733582157
aF-1.4188600701361505
aF-1.3337946544808144
aF-1.1564222969536337
aF-1.021926330002371
aF-0.826529138049949
aF-0.24430605683212062
asS'A1_y0.20_y0.40_val_err'
p623
(lp624
F0.010569561908524545
aF0.007174676144689638
aF0.007147580814131244
aF0.00766179929013161
aF0.00825187310224727
aF0.008911574637452993
aF0.009614766568941118
aF0.010340772287068771
aF0.011188034238483455
aF0.012190236873609194
aF0.009532213550780266
aF0.011060118625514941
aF0.012955998671006053
aF0.015299724785282994
aF0.017479373890656243
aF0.011023829849883494
aF0.01801795560559693
aF0.02644771371521655
aF0.02942176689378535
aF0.056825328797190974
asS'A5_y0.80_y1.00_val_err'
p625
(lp626
F0.009351282116973511
aF0.006410322120220533
aF0.006389974332433594
aF0.006827882212841517
aF0.0074018508233117545
aF0.007958935993843265
aF0.00863046977448636
aF0.009339791956342014
aF0.010150090436155666
aF0.011015867224783508
aF0.008743219190268279
aF0.010167938420633588
aF0.012087853643168708
aF0.014213297650852033
aF0.01674954124951231
aF0.010540152945345795
aF0.017740482683765765
aF0.02627242267557464
aF0.02892920342181941
aF0.057364647229962526
asS'A2_y1.20_y1.40_val'
p627
(lp628
F0.012790092098374058
aF-0.001848245370394262
aF0.06129850591091183
aF0.07329239775257398
aF0.09776266129678442
aF0.09943981518709959
aF0.13931525416397983
aF0.13005304473308865
aF0.2179618508553898
aF0.22122742153793803
aF0.2509347401004703
aF0.31550439457201046
aF0.3823898739671749
aF0.37537802976459955
aF0.4037237618691856
aF0.47533194913757
aF0.5778344858587793
aF0.6358109825911502
aF0.7325007978709145
aF0.8151297215988752
asS'A6_y4.50_y5.00_val'
p629
(lp630
F-0.008621146328210877
aF0.005626187120058793
aF-0.03158523367790933
aF0.019433463140623098
aF0.0010676403614057902
aF0.008134340515087038
aF-0.035584107612679945
aF0.051169767491986345
aF-0.009262085358150396
aF-0.015464654975106771
aF0.07223134697321863
aF0.05067254413229603
aF0.08559691347552148
aF-0.13190053214108668
aF-0.17369973434651503
aF-0.061391196700464126
aF-0.46615909713951287
aF1.9052161097670428
aF0.0
aF0.0
asS'A1_y1.00_y1.20_val'
p631
(lp632
F0.03435453505204506
aF0.027684575085203337
aF0.06072872027797972
aF0.07708463205500939
aF0.09436274242297446
aF0.11353877746406987
aF0.11953186442522427
aF0.14403830646745078
aF0.17099278166338497
aF0.18446985833706636
aF0.18386938879271414
aF0.17168339005816066
aF0.15997418853768838
aF0.12387711167100175
aF0.15190623400584677
aF0.07069072113875147
aF0.014618227544847843
aF0.05483398245908418
aF0.08417222930825645
aF-0.05304800422417121
asS'A5_y1.20_y1.40_fit'
p633
(lp634
F0.0
asS'A7_y0.00_y0.20_val'
p635
(lp636
F-0.01012106093628944
aF0.008071592051353245
aF0.003649850091804892
aF0.002865738783142962
aF0.003076120107988144
aF0.005704190798587507
aF0.014766299197391058
aF0.007441289150726775
aF-0.003038187620392469
aF0.003952794252421698
aF0.0014633183930688651
aF0.0015832682129537745
aF0.028058953300153986
aF0.013282737320269782
aF-0.016677135088716454
aF-0.0010986805016210224
aF0.015975749210609458
aF-0.003293399984790185
aF-0.024994196362398937
aF-0.08576230373597249
asS'A6_y1.00_y1.20_val'
p637
(lp638
F0.00200405898110845
aF-0.003230832938427645
aF0.002338983629515686
aF0.006846429269076583
aF0.005556556584181881
aF0.00890575021068515
aF-0.002163494605150322
aF-0.007189711234744092
aF0.01648744569020021
aF-0.007372615855032716
aF0.006012843407857266
aF-0.006400516621391212
aF-0.018789055378123667
aF0.014316607790942537
aF-0.005566600754341734
aF0.013982183297601201
aF-0.009144710538167086
aF-0.013549251367492923
aF0.009308803262951788
aF-0.06571487794506864
asS'A6_y2.50_y3.00_fit'
p639
(lp640
F0.0
asS'A7_y4.50_y5.00_val'
p641
(lp642
F0.004580160544105062
aF-0.004814091866866146
aF0.013242737422639027
aF-0.03435838731436796
aF-0.028162593312202795
aF-0.014696382517436258
aF0.023860846322389235
aF-0.04437962553516684
aF-0.01498917068715934
aF-0.0742771947139137
aF-0.043845380261861605
aF0.023210212230022224
aF-0.09417651339706697
aF-0.05975478223665104
aF0.020785604704511327
aF0.1805269091781995
aF-0.5017012720621848
aF5.356422094122196
aF0.0
aF0.0
asS'A2_y1.40_y1.60_fit'
p643
(lp644
F0.0
aF0.012258434980259608
aF-6.114442501803721e-05
asS'A7_y2.50_y3.00_val_err'
p645
(lp646
F0.005224966898960175
aF0.0036200627679902927
aF0.0036461288108656613
aF0.003936512468156056
aF0.004289276237044563
aF0.004673669684726044
aF0.00506638196820346
aF0.005475918407703873
aF0.00593404598100348
aF0.00643200943619265
aF0.00512292437412654
aF0.0060461038483546605
aF0.007188568544743101
aF0.008704479169129435
aF0.010094853910783378
aF0.0065726686468360685
aF0.011180211988994963
aF0.016869099076803708
aF0.019827319844123257
aF0.04631143276587303
asS'A6_y0.20_y0.40_val'
p647
(lp648
F-0.006946332171246855
aF-0.009359798719534244
aF-0.005602848943536009
aF0.004687123842584887
aF0.009186292638475882
aF0.0033024392529392515
aF-0.004646670776044062
aF-0.0033806302431292224
aF0.011892437874500724
aF0.003728903540996764
aF0.00333310842074649
aF0.000615851053365189
aF0.009803163624953605
aF0.008800801735242636
aF-0.009365859432314055
aF-0.013697414381052627
aF-0.0018956619887359508
aF0.02862596804619789
aF-0.0027280775856927987
aF0.059597354029660876
asS'A0_y2.00_y2.50_fit'
p649
(lp650
F0.0
aF-0.003486059299889377
aF0.0007649126193353759
aF-9.997217057156678e-06
asS'A3_y1.80_y2.00_val_err'
p651
(lp652
F0.008485191450578114
aF0.005855093532196988
aF0.005860135769133426
aF0.006351960665672524
aF0.006883012552991206
aF0.007535365303832096
aF0.008171379803096752
aF0.00890885840812768
aF0.00966194769338148
aF0.01047553980466131
aF0.008341710586360174
aF0.009804823861142734
aF0.01171853050087563
aF0.013932812316400454
aF0.016258866704012463
aF0.010370705806360835
aF0.017565005709021902
aF0.02715799982864601
aF0.030333637547522413
aF0.06134170925956569
asS'A7_y0.40_y0.60_val'
p653
(lp654
F0.004294219010688903
aF0.0020525541338084425
aF-0.004631597018913821
aF0.00017304371074480825
aF0.0033016829567948124
aF-0.004772706446694676
aF-0.0053070764014361395
aF0.0010623237446163822
aF0.005088416696738391
aF0.0005876210440020524
aF-0.0028892711624995447
aF0.008827604430305055
aF0.023314206200041664
aF0.007894647212891197
aF0.01668519047896102
aF0.005813736331228273
aF0.017110726771540314
aF0.03633154579531589
aF0.005462952310522782
aF-0.04817569290688736
asS'A6_y3.00_y3.50_val'
p655
(lp656
F0.0002840444606540768
aF-0.00815257218611382
aF0.0024209682537659704
aF0.0041767874704655185
aF-0.007413606596200204
aF0.007989217762710436
aF-0.003057044902709686
aF0.0023831533699147393
aF0.008163524298198126
aF-0.010547521499963098
aF0.008852782289560886
aF0.000749247266105174
aF-0.0034763030937104773
aF-0.015013221263543793
aF-0.012752269009377865
aF-0.011104629069945079
aF-0.011027979436471281
aF-0.029053152150387635
aF0.017458416138655355
aF0.1276770470197562
asS'A5_y4.00_y4.50_fit'
p657
(lp658
F0.0
asS'A5_y4.50_y5.00_val'
p659
(lp660
F0.030606561573244796
aF0.01107244680931246
aF-0.013573369075365648
aF0.022860706376803583
aF-0.006572302047373501
aF-0.04857792379304351
aF-0.017357926929357642
aF-0.06095600806763109
aF0.04020523817985058
aF-0.04195363181797841
aF0.0010490992859022565
aF0.04362376798154948
aF-0.07348161490469257
aF0.036582418494186524
aF0.031078807182382987
aF-0.2229399313325596
aF1.078170171399518
aF-1.7744800197160653
aF0.0
aF0.0
asS'A5_y0.20_y0.40_val_err'
p661
(lp662
F0.009383245368502444
aF0.006377393798897887
aF0.006351650925660891
aF0.006812632129170193
aF0.0073313709351124495
aF0.007942096343951283
aF0.008587480902819626
aF0.009249940360550536
aF0.010017771842132909
aF0.010901421377638896
aF0.008616301938745937
aF0.010103032918340837
aF0.011895663833414448
aF0.014244203763452975
aF0.016307112736473624
aF0.01044117531112949
aF0.01741939046311385
aF0.025724721124470287
aF0.029006659821566902
aF0.05603697232195326
asS'A0_y0.00_y0.20_val_err'
p663
(lp664
F0.013000677526793191
aF0.008828149866231183
aF0.008728388551760854
aF0.00931836223548034
aF0.009999178922316094
aF0.010764967812422086
aF0.011594334471134903
aF0.01238456308608768
aF0.013393935842902053
aF0.014397698352543939
aF0.011274992383776486
aF0.013134663936321744
aF0.015358061961398155
aF0.017772647263591883
aF0.020496105851925194
aF0.012904897392094087
aF0.02133254347358973
aF0.03157241444819305
aF0.03369859256713987
aF0.06986956056482539
asS'A0_y2.50_y3.00_fit'
p665
(lp666
F0.0
aF-0.00829460057053688
aF0.0014024262652577793
aF-3.293677097384511e-05
aF2.4286649698326237e-07
asS'A0_y2.00_y2.50_val_err'
p667
(lp668
F0.007972500444473762
aF0.005476202916364776
aF0.005485330870906351
aF0.005910681058696055
aF0.006385629268647979
aF0.006896206175385409
aF0.007434037838786337
aF0.008026207131157636
aF0.00863703418568494
aF0.009276531027583707
aF0.007342798970392058
aF0.008576717338064177
aF0.010084879224361656
aF0.011921464474843999
aF0.013849822353492065
aF0.008870847298578394
aF0.01468200397188102
aF0.02207516078097905
aF0.02462497993847865
aF0.05008126955036409
asS'A2_y2.50_y3.00_fit'
p669
(lp670
F0.0
aF0.007333428839250672
aF0.0003762660557300717
aF-6.742242651130753e-06
asS'A4_y3.00_y3.50_val_err'
p671
(lp672
F0.0071857597935931225
aF0.00499320864781533
aF0.005058089501338491
aF0.0054760798143221575
aF0.0059716599240078
aF0.006506326266242702
aF0.007019672768509364
aF0.007589337038834938
aF0.008234812457340538
aF0.008896017533094325
aF0.0070490658051082684
aF0.008302282744527188
aF0.00987216775913177
aF0.011590940913536242
aF0.01355395566052524
aF0.008861887797705047
aF0.015201457161455711
aF0.024213405542363828
aF0.02919538759011632
aF0.0830329218741092
asS'A1_y2.50_y3.00_val'
p673
(lp674
F0.015226504556694786
aF0.06539816457085966
aF0.09600425285258436
aF0.12403922830420663
aF0.15421394547534747
aF0.19088110404111358
aF0.2098172236809707
aF0.24699691649999164
aF0.23888344949613302
aF0.2544446039177902
aF0.2774890792706145
aF0.2804171163935621
aF0.2592309360767776
aF0.23456135700644945
aF0.2207692640614032
aF0.17557343029845987
aF0.16051375892395908
aF0.1863764089812436
aF0.14418116466642392
aF0.16676180120639614
asS'A0_y2.50_y3.00_val_err'
p675
(lp676
F0.007808461335646137
aF0.005408198979406184
aF0.005447260441050922
aF0.00587782603448447
aF0.0063611559991548555
aF0.006918617898993766
aF0.007458494889104367
aF0.008057985479414023
aF0.008702445338552179
aF0.009376353331432235
aF0.007426186886444584
aF0.008703457448292437
aF0.010308614075200992
aF0.012460945435971359
aF0.014359879871236023
aF0.009306954810760711
aF0.01586475795214628
aF0.02400859244902008
aF0.028273724035974893
aF0.06672238233514236
asS'A4_y0.80_y1.00_val'
p677
(lp678
F-0.23638529332550307
aF-0.24943534745895168
aF-0.2249691705745342
aF-0.2247033888411823
aF-0.2222096123489766
aF-0.2109247340770505
aF-0.2018646338959255
aF-0.18982486984472755
aF-0.1923608107798257
aF-0.19847352954198935
aF-0.2163786734219489
aF-0.21686395903643527
aF-0.19592173994546458
aF-0.18533006067553587
aF-0.1818878932387296
aF-0.17682306383780486
aF-0.15613412587780462
aF-0.12700425908662294
aF-0.10561800110157979
aF-0.1412350296591963
asS'A0_y0.00_y0.20_val'
p679
(lp680
F-0.03990762310592649
aF-0.01757990908679777
aF-0.012135888192130566
aF-0.0008672885113881399
aF0.017004195049404758
aF0.027492604104036335
aF0.05379654625268397
aF0.05388792950729554
aF0.10435171242624859
aF0.10730255243803351
aF0.15082038498610129
aF0.21348532665970515
aF0.26482114347889646
aF0.32988117796686245
aF0.3992697623533778
aF0.48569285570005466
aF0.6148029501749046
aF0.7469571656695688
aF0.8725367789647535
aF0.9804473525838361
asS'A4_y4.50_y5.00_val'
p681
(lp682
F-2.0756790057098176
aF-2.0362521839187444
aF-2.0589810954033356
aF-2.079280765352396
aF-2.0890581012084497
aF-2.0475963773620656
aF-2.052654427803108
aF-1.9529440839616385
aF-1.9307135448742228
aF-1.8873129959567654
aF-1.9190556119051465
aF-1.6542191351816193
aF-1.3050556668797106
aF-1.2402683663327172
aF-0.9917478167761172
aF-1.284156122951541
aF-0.20157207177939923
aF15.12997721830989
aF0.0
aF0.0
asS'A5_y1.00_y1.20_fit'
p683
(lp684
F0.0
asS'A5_y0.00_y0.20_val'
p685
(lp686
F0.0006910122832188112
aF0.008278509770121657
aF0.001011524332814858
aF-0.006178916154879913
aF0.0015701582082666885
aF-0.001387393308301003
aF-0.009594467484881153
aF0.012398062655660597
aF0.004104795623627021
aF0.008924585962739042
aF-0.0007500843745521173
aF0.0033654663828086642
aF-0.000973262660321567
aF-0.006331133380577837
aF-0.010197435033480985
aF-0.013648148707102377
aF0.03288803497852469
aF0.026389896347889248
aF-0.0011942652895117378
aF0.019367904810653137
asS'A4_y0.20_y0.40_val'
p687
(lp688
F-0.0715434001590071
aF-0.07878901351459497
aF-0.06778722609234406
aF-0.06653685127407892
aF-0.05790016133691758
aF-0.055819505262657616
aF-0.09083478673310875
aF-0.06383437300445034
aF-0.04959186614950992
aF-0.04389731518628914
aF-0.07547024220141423
aF-0.0647798190666482
aF-0.060019176842306385
aF-0.03836835002090536
aF-0.032721688120009224
aF-0.044072586348094446
aF-0.04597020261348322
aF-0.025068399273412312
aF-0.04289268047917805
aF-0.0779257234605807
asS'A7_y2.00_y2.50_val'
p689
(lp690
F0.004978843960383544
aF-0.0017971532066764892
aF0.00311403098861669
aF-0.0007456799006271585
aF0.0005329240743516152
aF0.0066314828364353404
aF0.00732140617214373
aF-0.000901223465892911
aF0.0003162238000162993
aF0.0025231202492313784
aF0.0005375056925661495
aF0.011816726124630755
aF0.01220074644236751
aF0.008390875551680029
aF0.019563414084282835
aF0.03538963314067155
aF0.034437084301936205
aF0.037290909087806634
aF0.04667198951633358
aF-0.03259796766628533
asS'A7_y1.20_y1.40_fit'
p691
(lp692
F0.0
asS'A7_y1.00_y1.20_fit'
p693
(lp694
F0.0
asS'A4_y0.20_y0.40_fit'
p695
(lp696
F-0.0733040838841908
aF0.000626166817669839
asS'A1_y0.40_y0.60_val'
p697
(lp698
F0.02372621169643115
aF0.017241619379556986
aF0.028752746816010553
aF0.04928658672994416
aF0.04267151944232091
aF0.05663299573556499
aF0.07425951519570456
aF0.06697903818154843
aF0.07182992837863185
aF0.10581711291758779
aF0.09618083611729256
aF0.11373072903347704
aF0.08764261227392671
aF0.07868383410525315
aF0.060163566950212514
aF0.053371092917060874
aF0.04664715996613861
aF0.0057588270731437205
aF0.004465524319068772
aF0.06824918003150013
asS'A1_y0.00_y0.20_val'
p699
(lp700
F0.005739222286336799
aF0.009292098403224171
aF-0.0062001793196878605
aF-0.003376495804412014
aF0.013274238404858781
aF0.019593779676402495
aF0.0098114227662663
aF0.019159459435418472
aF0.031691609174458686
aF0.009190884839223045
aF0.011160453297132637
aF0.027590148361281392
aF0.029587683386893188
aF0.0485789732889167
aF-0.018606279522578036
aF0.007769122509892436
aF-0.011822051802841066
aF-0.005005844081778882
aF0.007382007254654087
aF-0.0001700509742527163
asS'A5_y4.00_y4.50_val_err'
p701
(lp702
F0.008047617194893332
aF0.005793348362206859
aF0.006127188683101705
aF0.0069068718114302634
aF0.007778247753678613
aF0.008724470881731049
aF0.009889599684409446
aF0.011215190836113234
aF0.012495206795194842
aF0.014157018585109883
aF0.011900300582967203
aF0.015323981057204434
aF0.01961177336970292
aF0.02524982623543543
aF0.03160021461248834
aF0.024705840363109945
aF0.06040727453103731
aF0.15107760795781716
aF0.38369686950367476
aF0.9117729775511099
asS'A3_y1.40_y1.60_val_err'
p703
(lp704
F0.008577670580630104
aF0.005872020993520563
aF0.0058953359370626495
aF0.006328074868436474
aF0.006875113016026792
aF0.007444898348787867
aF0.008120528681349139
aF0.008839973877096938
aF0.009549438907721699
aF0.010338706359381885
aF0.008196214509688623
aF0.00966141062193412
aF0.01146297980151977
aF0.013648350347915318
aF0.01581644069133366
aF0.010139913206871853
aF0.01710062299700016
aF0.025447180937514607
aF0.028397570260137055
aF0.056669118953165225
asS'A2_y0.00_y0.20_val'
p705
(lp706
F0.004699654291906289
aF0.013160849177292362
aF0.0365636809695473
aF0.05678916952129543
aF0.07935598847306816
aF0.10462970104773264
aF0.11132647488800954
aF0.14343774690566294
aF0.12068793384881152
aF0.12834537091064163
aF0.2003076872393515
aF0.2693441661051206
aF0.32861774817066997
aF0.3277430235790936
aF0.3572173601570658
aF0.395422693376337
aF0.5931159298465005
aF0.573190695738049
aF0.6900966746351154
aF0.9550342770517807
asS'fit_range'
p707
(lp708
F0.0
aF50.0
asS'A4_y1.20_y1.40_val_err'
p709
(lp710
F0.010415109117123652
aF0.0071273238279438095
aF0.007050539923349967
aF0.007574367584271899
aF0.008091390135780382
aF0.008712993569271325
aF0.009421114466630255
aF0.010076547212400078
aF0.010849613758893267
aF0.0115344810456102
aF0.009120307688051053
aF0.010542190491573818
aF0.012193284114325128
aF0.014062029665282715
aF0.016366751634695025
aF0.01020291031946691
aF0.016170560264176976
aF0.024011453247331643
aF0.025211938119552232
aF0.051230358794108574
asS'A6_y0.80_y1.00_val'
p711
(lp712
F0.011227149011978813
aF-0.008210022023011743
aF-0.002625657017446963
aF0.00487007188148836
aF-0.0023661547520791274
aF0.0016479325894706342
aF0.01572755108768664
aF-0.0012502704097573196
aF-2.6031980034521088e-05
aF0.007941784409500227
aF-0.01375530624326361
aF0.002314696195160019
aF0.027099530946215224
aF0.009445040707395727
aF0.009371615761035736
aF0.022531557912047383
aF-0.006311902094336493
aF0.001462527068624363
aF0.005964744340401665
aF0.05966818667977352
asS'A3_y1.00_y1.20_val'
p713
(lp714
F-0.01852614950226451
aF-0.03850810955852609
aF-0.0746223136060251
aF-0.09599844324081917
aF-0.10535348864975956
aF-0.12403252174782577
aF-0.11737497946940832
aF-0.15052650299745213
aF-0.15146317683522983
aF-0.15954365876905702
aF-0.1692760308024429
aF-0.18934134111321188
aF-0.18341760909460264
aF-0.1756907797744443
aF-0.20161638822985475
aF-0.1304077202800714
aF-0.18714134316492975
aF-0.19670464289226383
aF-0.32768686752127285
aF-0.4982365830909038
asS'A2_y1.60_y1.80_fit'
p715
(lp716
F0.0
aF0.006581934985660148
aF0.00043366586024568866
aF-7.909501945493045e-06
asS'A0_y1.40_y1.60_fit'
p717
(lp718
F0.0
aF-0.003255871954109313
aF0.0007558022050228614
aF-9.98558504243112e-06
asS'A2_y3.50_y4.00_val'
p719
(lp720
F-0.0022370698577140954
aF0.02194125714557971
aF0.049232542380751816
aF0.1010337257440077
aF0.10147855891189257
aF0.150688015402997
aF0.16021798764084122
aF0.22231411268834092
aF0.2567954424155663
aF0.2835721761402627
aF0.3397576191597713
aF0.4278509058888803
aF0.46808104697333547
aF0.5340397582188274
aF0.5318227998739701
aF0.5717733282345686
aF0.6778409728462407
aF0.6282946520713368
aF0.6711111350890552
aF1.5434936080431594
asS'A0_y0.80_y1.00_val_err'
p721
(lp722
F0.012979325948183181
aF0.008814459120987403
aF0.008778610552117778
aF0.009336428930186009
aF0.01002402438891389
aF0.010776555666210243
aF0.01155813537010821
aF0.012514330997279437
aF0.013431740719652226
aF0.014514774894956547
aF0.011377880387800203
aF0.01311693389751513
aF0.015475457919805867
aF0.01801334078578607
aF0.02103880002299499
aF0.013047698519029262
aF0.021578353110644363
aF0.0318407679150861
aF0.03486630214928685
aF0.06931101841204504
asS'A3_y1.80_y2.00_fit'
p723
(lp724
F0.0
aF-0.02125502344704383
aF0.0005177181732340212
aF-3.967393448446225e-06
asS'A5_y3.50_y4.00_val'
p725
(lp726
F0.007113303867847344
aF-0.004215809046406651
aF0.0022171010968300904
aF0.00224126642494616
aF-0.0076663497604679545
aF0.004802806705225581
aF0.014388623371384555
aF0.0072291234936890545
aF0.012482538054038579
aF-0.00229536962916755
aF-0.016777374283940903
aF0.012432806963833315
aF-0.003635379351626274
aF-0.024229095857907595
aF-0.019169366469179994
aF-0.01461591213930085
aF0.04218122808379679
aF-0.008360367632943332
aF0.044538382686933
aF0.17911968395089511
asS'A2_y0.60_y0.80_fit'
p727
(lp728
F0.0
aF0.010656222084440559
aF-2.919009396390145e-05
asS'A4_y1.80_y2.00_val_err'
p729
(lp730
F0.010498725517372312
aF0.007214146484558257
aF0.007189002771265176
aF0.007697981124004204
aF0.008264317310036252
aF0.00893060297374532
aF0.009629883047732678
aF0.010391684924529517
aF0.011134072145540113
aF0.011955261894650975
aF0.00936453881399557
aF0.01078453460367662
aF0.012666021746089582
aF0.014881792403713387
aF0.01709354424909397
aF0.010624731543163513
aF0.017200808805793517
aF0.025570401530636958
aF0.027330572306157354
aF0.052348269032110074
asS'A0_y0.60_y0.80_val_err'
p731
(lp732
F0.01291581021056356
aF0.00884705759148868
aF0.008713775780615999
aF0.009321707422286772
aF0.009971434659174928
aF0.01076758849963605
aF0.011598378516674413
aF0.012487492114779754
aF0.013439280275624316
aF0.014400347653638344
aF0.011288210825516537
aF0.013107235037048578
aF0.015378637525268283
aF0.017954188766380087
aF0.02068521738909625
aF0.013008156923863163
aF0.02113335898729986
aF0.032077346079699996
aF0.035393848989248654
aF0.06815588803823731
asS'A6_y4.00_y4.50_val'
p733
(lp734
F-0.009010150037632524
aF0.005538633927506527
aF0.0007292345943697235
aF-0.0013626750020728064
aF-0.006137383293263957
aF0.024701811993467875
aF-0.0009195852038949873
aF-0.028947316109877157
aF0.008958914861816204
aF0.02685075812243968
aF-0.012949384864816465
aF-0.007497245073171825
aF-0.02588506756244774
aF-0.017493323570761953
aF-0.011147896201644454
aF0.02254077192605679
aF0.023933212883303995
aF0.026189802430303426
aF0.4500738350631098
aF0.8181759975473292
asS'A6_y2.00_y2.50_val'
p735
(lp736
F0.00664319573594229
aF-0.0035907892028315303
aF-0.015383508291311476
aF-0.0028367572646872813
aF0.001233852720082206
aF-0.0007159672859850712
aF-4.0341296567851655e-05
aF0.0049187474248324325
aF-0.002840246419698829
aF0.0029868756800994533
aF0.002627272496783911
aF-0.0005943611492995479
aF0.004618295193997931
aF0.0007498255787773253
aF-0.014340894074150777
aF-0.004252796486146493
aF-0.0012675167120435222
aF0.0050425888052263845
aF-0.018219646954194566
aF0.0030380266386441815
asS'A0_y1.20_y1.40_val_err'
p737
(lp738
F0.01289286493394413
aF0.008816766801854626
aF0.008712008700035129
aF0.00938561605739118
aF0.0100275724030088
aF0.010821358742923691
aF0.011689699242048018
aF0.012536098130809095
aF0.013508030455324444
aF0.014433873403992603
aF0.011439366552244206
aF0.013271599457880893
aF0.015534936782906197
aF0.018005121668658353
aF0.020955622320558205
aF0.01329471241899017
aF0.02160961189710637
aF0.03288435359178652
aF0.035264410148905675
aF0.07272104736057831
asS'A4_y0.20_y0.40_val_err'
p739
(lp740
F0.010397335114137976
aF0.007026765629432376
aF0.006981905093237298
aF0.007453062037758782
aF0.008007352837942691
aF0.008589423065176427
aF0.009231040912032055
aF0.009878220260704082
aF0.010626013367278588
aF0.01152277681440238
aF0.008959633870634412
aF0.01028164621185908
aF0.011937810310753645
aF0.014043120272101896
aF0.015902410802459997
aF0.009856835743233292
aF0.015766490127426983
aF0.022855068407414216
aF0.024992600209019538
aF0.04756671519967025
asS'A7_y4.50_y5.00_val_err'
p741
(lp742
F0.01854491020756106
aF0.013727088036468965
aF0.015263121293330259
aF0.017660991551158186
aF0.0205805650770619
aF0.023761938819431977
aF0.02839945511067284
aF0.03290772551315407
aF0.03685826269344984
aF0.043809150595285416
aF0.039633796048902756
aF0.052375894914585455
aF0.07465363161688576
aF0.09820086565508575
aF0.14683266872116185
aF0.15510387784842897
aF0.703233134194525
aF15.488085150320565
aF0.0
aF0.0
asS'A5_y4.00_y4.50_val'
p743
(lp744
F0.0045856685040389445
aF0.002576916205223912
aF-0.0010398891777863382
aF0.010515467829353854
aF-0.0011361071313528933
aF0.009105214183535444
aF-0.004749936761488056
aF-0.0028093361884915474
aF-0.01025381381713761
aF0.009889196540961655
aF0.013973949106840853
aF-0.01969227818978052
aF0.010491711977667215
aF0.004533420666173848
aF-0.012094935496124858
aF-0.018593169893605436
aF-0.003715672737043515
aF-0.21314643765623395
aF0.24620485510575535
aF-0.34114198369000454
asS'A3_y1.20_y1.40_val'
p745
(lp746
F-0.03057960245588627
aF-0.05124501836660065
aF-0.06721964018878658
aF-0.1099383363311816
aF-0.12098028309964105
aF-0.11851963756157008
aF-0.14846189382288574
aF-0.13650088406472172
aF-0.16615475858063453
aF-0.16914657513947418
aF-0.18963006135179564
aF-0.21075091066918017
aF-0.20453257522869972
aF-0.18661881832603192
aF-0.18291229039170448
aF-0.17373012660863554
aF-0.206108411436025
aF-0.2723846605428979
aF-0.375360780293498
aF-0.525823368611432
asS'A0_y0.40_y0.60_fit'
p747
(lp748
F0.0
aF-0.004794327920238928
aF0.0007465734684422975
aF-9.11212879554666e-06
asS'A1_y1.80_y2.00_fit'
p749
(lp750
F0.0
aF0.0195892480984744
aF-0.0005045693981343708
aF3.137552805039951e-06
asS'A0_y4.00_y4.50_val_err'
p751
(lp752
F0.010989767075978775
aF0.007898461272829276
aF0.00833715569465487
aF0.009380524366012909
aF0.010535667226492929
aF0.011753977705200612
aF0.013232590741817282
aF0.015028284481558442
aF0.0166250353017367
aF0.018707473174581612
aF0.015570238786923398
aF0.019908890136912775
aF0.025492864795807743
aF0.032659214066278766
aF0.04024908775353863
aF0.030849640443024413
aF0.07429690246873631
aF0.18104255110696166
aF0.4441583938256459
aF1.396761366815685
asS'A6_y0.80_y1.00_val_err'
p753
(lp754
F0.010533206667766935
aF0.007176301799561768
aF0.007143426948287579
aF0.007600415767026983
aF0.008190155430628144
aF0.008783747841281189
aF0.009463289638355734
aF0.010225066900661134
aF0.011004610436226189
aF0.011942934595970773
aF0.009373967740838323
aF0.010777265317902716
aF0.012714722492090939
aF0.014837587764840628
aF0.01717459834370968
aF0.010679779991504532
aF0.01736357329208775
aF0.0252864695619999
aF0.027048593057708747
aF0.05286465354891009
asS'A4_y1.20_y1.40_fit'
p755
(lp756
F-0.3630985378649301
aF0.001807108079300587
asS'A3_y2.50_y3.00_fit'
p757
(lp758
F0.0
aF-0.027993226481866418
aF0.00051076445057378
aF-3.225809707052313e-06
asS'A2_y4.50_y5.00_fit'
p759
(lp760
F0.0
aF-0.007177702089556426
aF0.004674418844424608
aF-7.206188556898826e-05
asS'A2_y1.80_y2.00_val'
p761
(lp762
F0.0093290100507914
aF0.0050591626970753175
aF0.03991964820215303
aF0.08215062124090634
aF0.10155206027293323
aF0.12425936374499316
aF0.163415393596125
aF0.1546879710844138
aF0.23415927724251798
aF0.21039778516694377
aF0.26737853286628144
aF0.33517892508179437
aF0.3634191801127298
aF0.42878404216261934
aF0.39885862315249254
aF0.46206329294326404
aF0.5474905461016584
aF0.690366528418758
aF0.7417675815683574
aF0.8333421985053734
asS'A3_y4.50_y5.00_val'
p763
(lp764
F-0.06063281851679182
aF-0.14047171442138925
aF-0.24430229733346204
aF-0.2949124402511677
aF-0.42376413886672254
aF-0.5700421506034199
aF-0.6663175965351354
aF-0.858362108096615
aF-0.9764880725113276
aF-1.1085510418924536
aF-1.2697896329620368
aF-1.6223273786691743
aF-2.0727832206476733
aF-1.8769229819957902
aF-1.9368212787191819
aF-1.6337444213044325
aF-1.0124918006398544
aF-0.5737396823604767
aF0.0
aF0.0
asS'A3_y2.00_y2.50_val_err'
p765
(lp766
F0.005329980442016515
aF0.0036726182555742305
aF0.0037052091620912585
aF0.004015003414116889
aF0.004381917848444945
aF0.004777103702128707
aF0.005198562094812956
aF0.005649717854201122
aF0.00613187512617376
aF0.006649355132718479
aF0.005329701358245401
aF0.0063155799155209455
aF0.007527200725515368
aF0.008945101485105444
aF0.010455951571416395
aF0.006767482982669509
aF0.01145631263405796
aF0.017618832548386688
aF0.020023941545274627
aF0.04299703775857206
asS'A0_y4.00_y4.50_fit'
p767
(lp768
F0.0
aF-0.011589372056325875
aF0.0013339047619878343
aF-1.8021253696141496e-05
asS'A4_y0.80_y1.00_val_err'
p769
(lp770
F0.010430590301877414
aF0.007079373581373907
aF0.007049744928582277
aF0.007496602508873357
aF0.00804732556794287
aF0.008633375261516654
aF0.009264287429688982
aF0.009999669652767834
aF0.010703202138174172
aF0.011572284337710848
aF0.009056177499204367
aF0.010339668286343397
aF0.012107311929459453
aF0.014050386104751686
aF0.016244105146680905
aF0.009979200952897685
aF0.01611276003616367
aF0.023248666130980037
aF0.02489861938530067
aF0.048624369005045145
as.